ccollections
OrderedDict
p0
((lp1
(lp2
(Vconv2d_1
p3
I0
tp4
a(lp5
cnumpy.core.multiarray
scalar
p6
(cnumpy
dtype
p7
(S'f8'
p8
I0
I1
tp9
Rp10
(I3
S'<'
p11
NNNI-1
I-1
I0
tp12
bS'\xe6\xd3P\xb5\xf3\x8b\xad?'
p13
tp14
Rp15
ag6
(g10
S'\xc0\xf5\x88\x97\xfaJl?'
p16
tp17
Rp18
aF0.011111482528280538
ag6
(g7
(S'f4'
p19
I0
I1
tp20
Rp21
(I3
S'<'
p22
NNNI-1
I-1
I0
tp23
bS'\x83,\x89<'
p24
tp25
Rp26
ag6
(g21
S'\xf3\xf8\xe2='
p27
tp28
Rp29
aaa(lp30
(g3
I1
tp31
a(lp32
g6
(g10
S'CM\x8e\x95\xd2Y\xbb?'
p33
tp34
Rp35
ag6
(g10
S'\x06\\\x1a\xe1"\x98\x89?'
p36
tp37
Rp38
aF0.032902352784798014
ag6
(g21
S'\xa2(\xbb<'
p39
tp40
Rp41
ag6
(g21
S'L\xdd\x9c>'
p42
tp43
Rp44
aaa(lp45
(g3
I2
tp46
a(lp47
g6
(g10
S'\xedb\x1e\xbfXM\xa1?'
p48
tp49
Rp50
ag6
(g10
S'\x17}\xf7\x93\xba\xe5U?'
p51
tp52
Rp53
aF0.013947303963929514
ag6
(g21
S'\xb1*d;'
p54
tp55
Rp56
ag6
(g21
S'2\x84\xaf='
p57
tp58
Rp59
aaa(lp60
(g3
I3
tp61
a(lp62
g6
(g10
S'\xf7\x1ay\xadj\xb2\xb3?'
p63
tp64
Rp65
ag6
(g10
S'r\xa1{X\x14lz?'
p66
tp67
Rp68
aF0.023038766827058795
ag6
(g21
S'\xcc#\x88<'
p69
tp70
Rp71
ag6
(g21
S'\xcd\xbfK>'
p72
tp73
Rp74
aaa(lp75
(g3
I4
tp76
a(lp77
g6
(g10
S'\xf3\x0eA\x97\x1aP\xa7?'
p78
tp79
Rp80
ag6
(g10
S"\xa5\xa8YX'\xc8a?"
p81
tp82
Rp83
aF0.009868141063042048
ag6
(g21
S'\xb0\x93T<'
p84
tp85
Rp86
ag6
(g21
S')\x00\xc3='
p87
tp88
Rp89
aaa(lp90
(g3
I5
tp91
a(lp92
g6
(g10
S'?\xc3^OL\x8d\xae?'
p93
tp94
Rp95
ag6
(g10
S'\x85\xcd\xdc\xdd\xc6}p?'
p96
tp97
Rp98
aF0.02157498849191059
ag6
(g21
S'\x7f\x1b\x07;'
p99
tp100
Rp101
ag6
(g21
S'\x8e:\x05>'
p102
tp103
Rp104
aaa(lp105
(Vaverage_pooling2d_1
p106
I0
tp107
a(lp108
g6
(g10
S'\xf2\xdbW\xb5\xf3\x8b\xad?'
p109
tp110
Rp111
ag6
(g10
S'^+\x91\x97\xfaJl?'
p112
tp113
Rp114
aF0.011111482522173284
ag6
(g21
S'\x84,\x89<'
p115
tp116
Rp117
ag6
(g21
S'\xf3\xf8\xe2='
p118
tp119
Rp120
aaa(lp121
(g106
I1
tp122
a(lp123
g6
(g10
S'#\x8a\x84\x95\xd2Y\xbb?'
p124
tp125
Rp126
ag6
(g10
S'\x99E\xe1\xe0"\x98\x89?'
p127
tp128
Rp129
aF0.03290235271500171
ag6
(g21
S'\xa2(\xbb<'
p130
tp131
Rp132
ag6
(g21
S'M\xdd\x9c>'
p133
tp134
Rp135
aaa(lp136
(g106
I2
tp137
a(lp138
g6
(g10
S'\xdc\xff?\xbfXM\xa1?'
p139
tp140
Rp141
ag6
(g10
S'\xc8_c\x94\xba\xe5U?'
p142
tp143
Rp144
aF0.013947303981856169
ag6
(g21
S'\xb3*d;'
p145
tp146
Rp147
ag6
(g21
S'2\x84\xaf='
p148
tp149
Rp150
aaa(lp151
(g106
I3
tp152
a(lp153
g6
(g10
S'\xe9!X\xa7j\xb2\xb3?'
p154
tp155
Rp156
ag6
(g10
S'\x8e\xd0\xd3E\x14lz?'
p157
tp158
Rp159
aF0.023038765700960463
ag6
(g21
S'\xcc#\x88<'
p160
tp161
Rp162
ag6
(g21
S'\xcd\xbfK>'
p163
tp164
Rp165
aaa(lp166
(g106
I4
tp167
a(lp168
g6
(g10
S'\x157?\x97\x1aP\xa7?'
p169
tp170
Rp171
ag6
(g10
S"\x17}TX'\xc8a?"
p172
tp173
Rp174
aF0.009868141059464276
ag6
(g21
S'\xb0\x93T<'
p175
tp176
Rp177
ag6
(g21
S')\x00\xc3='
p178
tp179
Rp180
aaa(lp181
(g106
I5
tp182
a(lp183
g6
(g10
S'w3\xbdOL\x8d\xae?'
p184
tp185
Rp186
ag6
(g10
S'\xc7Pc\xde\xc6}p?'
p187
tp188
Rp189
aF0.021574988550332047
ag6
(g21
S'\x7f\x1b\x07;'
p190
tp191
Rp192
ag6
(g21
S'\x8e:\x05>'
p193
tp194
Rp195
aaa(lp196
(Vconv2d_2
p197
I0
tp198
a(lp199
g6
(g10
S'\x17#\xab\xa2\x05\xbe\xa6?'
p200
tp201
Rp202
ag6
(g10
S'\xdfO\xda6\r\x95b?'
p203
tp204
Rp205
aF0.0171853302072036
ag6
(g21
S'\xecdS8'
p206
tp207
Rp208
ag6
(g21
S'\x11E\xf2='
p209
tp210
Rp211
aaa(lp212
(g197
I1
tp213
a(lp214
g6
(g10
S'\th8K\xfd)\x9b?'
p215
tp216
Rp217
ag6
(g10
S'\x89X\xd2\xc7\x16\x14R?'
p218
tp219
Rp220
aF0.01999303215943316
ag6
(g21
S'\x00\x00\x00\x00'
p221
tp222
Rp223
ag6
(g21
S'\x85\xea\x1e>'
p224
tp225
Rp226
aaa(lp227
(g197
I2
tp228
a(lp229
g6
(g10
S'\xda+@C\x8e\x1c\xb0?'
p230
tp231
Rp232
ag6
(g10
S'\xab9\x83\xa7\x87\xeds?'
p233
tp234
Rp235
aF0.030071456259778306
ag6
(g21
S'\xda\x98\xee;'
p236
tp237
Rp238
ag6
(g21
S'\\qz>'
p239
tp240
Rp241
aaa(lp242
(g197
I3
tp243
a(lp244
g6
(g10
S'\x8c\xc5d\xfby\xba\xb1?'
p245
tp246
Rp247
ag6
(g10
S'X.4\x08k)y?'
p248
tp249
Rp250
aF0.03670453941265573
ag6
(g21
S'\xc9z\xa4:'
p251
tp252
Rp253
ag6
(g21
S'\xbaSe>'
p254
tp255
Rp256
aaa(lp257
(g197
I4
tp258
a(lp259
g6
(g10
S'\xe2\xcd\xbdv\x0e\xfd\x94?'
p260
tp261
Rp262
ag6
(g10
S'\x8a\x80\xdd\xe9\n\x1aB?'
p263
tp264
Rp265
aF0.011502650857048836
ag6
(g21
S'\xf7Uf7'
p266
tp267
Rp268
ag6
(g21
S'\x91\xfb\xab='
p269
tp270
Rp271
aaa(lp272
(g197
I5
tp273
a(lp274
g6
(g10
S'\xbdh\xf2\x1cT \xa4?'
p275
tp276
Rp277
ag6
(g10
S'\xdd\xaf\xb4>\x9e*_?'
p278
tp279
Rp280
aF0.018895547958105833
ag6
(g21
S'\x00\x00\x00\x00'
p281
tp282
Rp283
ag6
(g21
S'L4\x06>'
p284
tp285
Rp286
aaa(lp287
(g197
I6
tp288
a(lp289
g6
(g10
S'\x95\xd1+W_L\xb1?'
p290
tp291
Rp292
ag6
(g10
S'?lY\xc4!&u?'
p293
tp294
Rp295
aF0.0244417126829139
ag6
(g21
S'\xd4\x0f5;'
p296
tp297
Rp298
ag6
(g21
S'\xeb9+>'
p299
tp300
Rp301
aaa(lp302
(g197
I7
tp303
a(lp304
g6
(g10
S'\xeb\x18\xd7\xb2\xaf\xd1\xa3?'
p305
tp306
Rp307
ag6
(g10
S'\xaeY\x1a\x03\x02\xb6^?'
p308
tp309
Rp310
aF0.019392010894767917
ag6
(g21
S'Y+N:'
p311
tp312
Rp313
ag6
(g21
S'\xeet\xf5='
p314
tp315
Rp316
aaa(lp317
(g197
I8
tp318
a(lp319
g6
(g10
S' \xf9`\x1f>@\xba?'
p320
tp321
Rp322
ag6
(g10
S'\xc2\xbc\xf9\xa5\x8a\x9d\x87?'
p323
tp324
Rp325
aF0.03187376322107756
ag6
(g21
S'~\x06\xc3<'
p326
tp327
Rp328
ag6
(g21
S'\x14Iv>'
p329
tp330
Rp331
aaa(lp332
(g197
I9
tp333
a(lp334
g6
(g10
S'\x86\xe1\x9fN\x05\xef\xb9?'
p335
tp336
Rp337
ag6
(g10
S'\xdc\x87\x94x\\\x1a\x86?'
p338
tp339
Rp340
aF0.023023580270799284
ag6
(g21
S'\xc49%='
p341
tp342
Rp343
ag6
(g21
S'\xa5\x11l>'
p344
tp345
Rp346
aaa(lp347
(g197
I10
tp348
a(lp349
g6
(g10
S'\xdc\x8d\x0b\x7f\x11\xda\xa5?'
p350
tp351
Rp352
ag6
(g10
S'\xa5\xc7\xf3\x96\xbe\xa7d?'
p353
tp354
Rp355
aF0.026454976112944454
ag6
(g21
S'o5\x9c;'
p356
tp357
Rp358
ag6
(g21
S'\x1b\xd49>'
p359
tp360
Rp361
aaa(lp362
(g197
I11
tp363
a(lp364
g6
(g10
S'I(\r\xbd\x1c}\xc0?'
p365
tp366
Rp367
ag6
(g10
S'P<W\xf1.(\x92?'
p368
tp369
Rp370
aF0.033723931229126036
ag6
(g21
S'\xfb\xbc\xc8<'
p371
tp372
Rp373
ag6
(g21
S'G\xa8u>'
p374
tp375
Rp376
aaa(lp377
(g197
I12
tp378
a(lp379
g6
(g10
S'X\xe8\xbdwz<\xa5?'
p380
tp381
Rp382
ag6
(g10
S'm\xc2\x16\x04\xfd\xcb`?'
p383
tp384
Rp385
aF0.018167264509932054
ag6
(g21
S'\x00\x00\x00\x00'
p386
tp387
Rp388
ag6
(g21
S'\x1a\xff\xfc='
p389
tp390
Rp391
aaa(lp392
(g197
I13
tp393
a(lp394
g6
(g10
S'\x80\xde\x96AW\x01\xc8?'
p395
tp396
Rp397
ag6
(g10
S'}A\n!\x04f\xa2?'
p398
tp399
Rp400
aF0.0276219998403745
ag6
(g21
S'\xf6t\xa1='
p401
tp402
Rp403
ag6
(g21
S'*\x8b\x8f>'
p404
tp405
Rp406
aaa(lp407
(g197
I14
tp408
a(lp409
g6
(g10
S'_8\x15\xf4mX\xae?'
p410
tp411
Rp412
ag6
(g10
S'#&\x96\x9fLxp?'
p413
tp414
Rp415
aF0.022543990623126998
ag6
(g21
S'_%\x0f:'
p416
tp417
Rp418
ag6
(g21
S'b\x11O>'
p419
tp420
Rp421
aaa(lp422
(g197
I15
tp423
a(lp424
g6
(g10
S'\x0b\x1a\xd6\xe4\x0f{\xb1?'
p425
tp426
Rp427
ag6
(g10
S'\xd1\x07"\xc6a4u?'
p428
tp429
Rp430
aF0.02267597606902953
ag6
(g21
S'\xae\x8f\\<'
p431
tp432
Rp433
ag6
(g21
S'\xf5\xa87>'
p434
tp435
Rp436
aaa(lp437
(Vaverage_pooling2d_2
p438
I0
tp439
a(lp440
g6
(g10
S'\xd1\x8av\x89\xc3l\xaa?'
p441
tp442
Rp443
ag6
(g10
S'7\xe6\x06\x84O\x08i?'
p444
tp445
Rp446
aF0.01979949302618558
ag6
(g21
S'9\x18x8'
p447
tp448
Rp449
ag6
(g21
S'\xb7\xa6\x0c>'
p450
tp451
Rp452
aaa(lp453
(g438
I1
tp454
a(lp455
g6
(g10
S'\xce\xbf\xf9\x8a\xe9\x96\x9e?'
p456
tp457
Rp458
ag6
(g10
S'\x1b\x86\xce@g\x0eW?'
p459
tp460
Rp461
aF0.022690808619671366
ag6
(g21
S'\x00\x00\x00\x00'
p462
tp463
Rp464
ag6
(g21
S'\xdf\xa65>'
p465
tp466
Rp467
aaa(lp468
(g438
I2
tp469
a(lp470
g6
(g10
S'B=\x1b\xce\xa5\x8d\xb1?'
p471
tp472
Rp473
ag6
(g10
S'\xa5\xf4Q\xa7\x14\xedw?'
p474
tp475
Rp476
aF0.03376112172648136
ag6
(g21
S'\xfc\x0b\xa8;'
p477
tp478
Rp479
ag6
(g21
S'\xad\xa1\x89>'
p480
tp481
Rp482
aaa(lp483
(g438
I3
tp484
a(lp485
g6
(g10
S'\x12\xcd\xd6\x84\x10\x1b\xb1?'
p486
tp487
Rp488
ag6
(g10
S'\xbd\x8f\xe9\xf5\xc0\xa6x?'
p489
tp490
Rp491
aF0.0394156739681642
ag6
(g21
S'\x00\x00\x00\x00'
p492
tp493
Rp494
ag6
(g21
S'\x0b|l>'
p495
tp496
Rp497
aaa(lp498
(g438
I4
tp499
a(lp500
g6
(g10
S'\x16\x05\xcb\xf4\\\xe5\x95?'
p501
tp502
Rp503
ag6
(g10
S'`\xc1\x19\xc3\xce\xd2D?'
p504
tp505
Rp506
aF0.013351375465167022
ag6
(g21
S'\x8e)\x877'
p507
tp508
Rp509
ag6
(g21
S'\xec\xfa\xc7='
p510
tp511
Rp512
aaa(lp513
(g438
I5
tp514
a(lp515
g6
(g10
S'r\xbe\xaa\xad09\xa7?'
p516
tp517
Rp518
ag6
(g10
S'M1\x0e\x1a\x05\xfbd?'
p519
tp520
Rp521
aF0.022444051814418352
ag6
(g21
S'\x00\x00\x00\x00'
p522
tp523
Rp524
ag6
(g21
S'\xc4\xb6\x1c>'
p525
tp526
Rp527
aaa(lp528
(g438
I6
tp529
a(lp530
g6
(g10
S'\xf3\x02\xcb\x97\xda\x15\xb4?'
p531
tp532
Rp533
ag6
(g10
S'\xa0\x92\x80\xd9\x14\x88|?'
p534
tp535
Rp536
aF0.028460223959656892
ag6
(g21
S'\x0b\xeeQ;'
p537
tp538
Rp539
ag6
(g21
S'y\x83G>'
p540
tp541
Rp542
aaa(lp543
(g438
I7
tp544
a(lp545
g6
(g10
S'w\xa5<\x02\x0fn\xa6?'
p546
tp547
Rp548
ag6
(g10
S'\xf1S\x9b\xde\x17\xbfc?'
p549
tp550
Rp551
aF0.02216478502916961
ag6
(g21
S'\x96j=:'
p552
tp553
Rp554
ag6
(g21
S'\x0f\t\x10>'
p555
tp556
Rp557
aaa(lp558
(g438
I8
tp559
a(lp560
g6
(g10
S'\\\x14\xc9\xc6\xcd\xe0\xbc?'
p561
tp562
Rp563
ag6
(g10
S'Kd{\xf6\x11\xed\x8c?'
p564
tp565
Rp566
aF0.03740360470445984
ag6
(g21
S',\xd1\xb2<'
p567
tp568
Rp569
ag6
(g21
S'\xc3\xcc\x8d>'
p570
tp571
Rp572
aaa(lp573
(g438
I9
tp574
a(lp575
g6
(g10
S'-\xf0\xbb\xf7\xedk\xb8?'
p576
tp577
Rp578
ag6
(g10
S'F\x85\xf5\xfc$\xfa\x83?'
p579
tp580
Rp581
aF0.02557132855115524
ag6
(g21
S'\x1aR\x03='
p582
tp583
Rp584
ag6
(g21
S'\xe9\x12w>'
p585
tp586
Rp587
aaa(lp588
(g438
I10
tp589
a(lp590
g6
(g10
S'\xd9c\x07\x93\xccu\xa7?'
p591
tp592
Rp593
ag6
(g10
S'\xed\xb7\xf9f\x9c\x1dh?'
p594
tp595
Rp596
aF0.029056474521424635
ag6
(g21
S'\xc9\x0b\x8a;'
p597
tp598
Rp599
ag6
(g21
S'\x07\xa2O>'
p600
tp601
Rp602
aaa(lp603
(g438
I11
tp604
a(lp605
g6
(g10
S'\x16b\xcb\xa3b;\xc0?'
p606
tp607
Rp608
ag6
(g10
S'~v\x9d\x92\xbd\xf6\x91?'
p609
tp610
Rp611
aF0.03822884371002729
ag6
(g21
S'\x96\x95`<'
p612
tp613
Rp614
ag6
(g21
S'\xe8\x0c\x83>'
p615
tp616
Rp617
aaa(lp618
(g438
I12
tp619
a(lp620
g6
(g10
S'\xea\x9b\xc76Mw\xa8?'
p621
tp622
Rp623
ag6
(g10
S'V37\x87\x9cRf?'
p624
tp625
Rp626
aF0.021012230364992647
ag6
(g21
S'\x00\x00\x00\x00'
p627
tp628
Rp629
ag6
(g21
S'\xb2u\x14>'
p630
tp631
Rp632
aaa(lp633
(g438
I13
tp634
a(lp635
g6
(g10
S'\xb6\xda\xaf{s\x98\xc5?'
p636
tp637
Rp638
ag6
(g10
S'\xe3\xb5\x04\xd5\xb8 \x9e?'
p639
tp640
Rp641
aF0.030934916180111873
ag6
(g21
S'\x00\x19?='
p642
tp643
Rp644
ag6
(g21
S'\xdf\x80\x8c>'
p645
tp646
Rp647
aaa(lp648
(g438
I14
tp649
a(lp650
g6
(g10
S'\x87&:\xe4\x98\xaa\xb1?'
p651
tp652
Rp653
ag6
(g10
S'cc^\x11{[v?'
p654
tp655
Rp656
aF0.026382668499864897
ag6
(g21
S"k\xff':"
p657
tp658
Rp659
ag6
(g21
S'g\x04s>'
p660
tp661
Rp662
aaa(lp663
(g438
I15
tp664
a(lp665
g6
(g10
S'\xcdR6\xb8\x1e\xda\xb1?'
p666
tp667
Rp668
ag6
(g10
S'\xc9\xb0R\xd8\x98\x02w?'
p669
tp670
Rp671
aF0.027473824588567595
ag6
(g21
S'g\xef\xa7;'
p672
tp673
Rp674
ag6
(g21
S'\xcb\xb3N>'
p675
tp676
Rp677
aaa(lp678
(Vdense_1
p679
I0
tp680
a(lp681
g6
(g10
S'\xfd\xf0\xbe4\r\xc4\xd0?'
p682
tp683
Rp684
ag6
(g10
S'\xcb\xe6\x98\xb6 #\xe1?'
p685
tp686
Rp687
aF0.6833094863615008
ag6
(g21
S'\x00\x00\x00\x00'
p688
tp689
Rp690
ag6
(g21
S'\xcdU\xb7@'
p691
tp692
Rp693
aaa(lp694
(g679
I1
tp695
a(lp696
g6
(g10
S'\x92\x14\xae\x9b\x10\x9e\xd6?'
p697
tp698
Rp699
ag6
(g10
S'<\x85\xfb\x07\x8b\xb6\xe2?'
p700
tp701
Rp702
aF0.6781543253150403
ag6
(g21
S'\x00\x00\x00\x00'
p703
tp704
Rp705
ag6
(g21
S'\x0b\xed\x93@'
p706
tp707
Rp708
aaa(lp709
(g679
I2
tp710
a(lp711
g6
(g10
S'\xbd\xfa\xa6\xd9\xbb\xe8\xd3?'
p712
tp713
Rp714
ag6
(g10
S'\xc1\xc6\xc5\xfd\xb7<\xe2?'
p715
tp716
Rp717
aF0.687852616160598
ag6
(g21
S'\x00\x00\x00\x00'
p718
tp719
Rp720
ag6
(g21
S'\xad\xc5\x96@'
p721
tp722
Rp723
aaa(lp724
(g679
I3
tp725
a(lp726
g6
(g10
S'\x9b\x06\xf0&\xac\x9e\xa5?'
p727
tp728
Rp729
ag6
(g10
S'\xd8AwV\xeeF\xa9?'
p730
tp731
Rp732
aF0.218142691100449
ag6
(g21
S'\x00\x00\x00\x00'
p733
tp734
Rp735
ag6
(g21
S'\xed\xb8z@'
p736
tp737
Rp738
aaa(lp739
(g679
I4
tp740
a(lp741
g6
(g10
S'\x98\xce\xd2\xc4\x01\xce\xa3?'
p742
tp743
Rp744
ag6
(g10
S'\xb5\x04\xcb\x03\x95}\xa0?'
p745
tp746
Rp747
aF0.17524807879918705
ag6
(g21
S'\x00\x00\x00\x00'
p748
tp749
Rp750
ag6
(g21
S'\xe1U\x18@'
p751
tp752
Rp753
aaa(lp754
(g679
I5
tp755
a(lp756
g6
(g10
S'\xda\x17\xcb\x1f\x97\x15\xc4?'
p757
tp758
Rp759
ag6
(g10
S'\xa9\xd3\x7f\xd5\xe4Y\xd0?'
p760
tp761
Rp762
aF0.48048547233901046
ag6
(g21
S'\x00\x00\x00\x00'
p763
tp764
Rp765
ag6
(g21
S'\xdd\xf8\x9a@'
p766
tp767
Rp768
aaa(lp769
(g679
I6
tp770
a(lp771
g6
(g10
S'\x98\xbe\x04~E\xed\xe8?'
p772
tp773
Rp774
ag6
(g10
S'\xdb\xbe\x1cw4\xe7\xff?'
p775
tp776
Rp777
aF1.177778381782166
ag6
(g21
S'\x00\x00\x00\x00'
p778
tp779
Rp780
ag6
(g21
S'\xb1~\xca@'
p781
tp782
Rp783
aaa(lp784
(g679
I7
tp785
a(lp786
g6
(g10
S'C\r\x85J\xed\xc5\xd4?'
p787
tp788
Rp789
ag6
(g10
S's\x84CP\xe0\x81\xdc?'
p790
tp791
Rp792
aF0.5831590815877868
ag6
(g21
S'\x00\x00\x00\x00'
p793
tp794
Rp795
ag6
(g21
S'\xf0E\x82@'
p796
tp797
Rp798
aaa(lp799
(g679
I8
tp800
a(lp801
g6
(g10
S'\x00\x00\x00\x00\x00\x00\x00\x00'
p802
tp803
Rp804
ag6
(g10
S'\x00\x00\x00\x00\x00\x00\x00\x00'
p805
tp806
Rp807
aF0.0
ag6
(g21
S'\x00\x00\x00\x00'
p808
tp809
Rp810
ag810
aaa(lp811
(g679
I9
tp812
a(lp813
g6
(g10
S'\x04\x9cs?\x93\xc7\xc7?'
p814
tp815
Rp816
ag6
(g10
S'X\x0f\xe572,\xd5?'
p817
tp818
Rp819
aF0.5443427555255226
ag6
(g21
S'\x00\x00\x00\x00'
p820
tp821
Rp822
ag6
(g21
S'\x9a\x93\xb8@'
p823
tp824
Rp825
aaa(lp826
(g679
I10
tp827
a(lp828
g6
(g10
S'\xfb\xec\x08"\x83\xc0\xec?'
p829
tp830
Rp831
ag6
(g10
S'\x95Q\x83\x83\x19\x10\x03@'
p832
tp833
Rp834
aF1.2552126757399549
ag6
(g21
S'\x00\x00\x00\x00'
p835
tp836
Rp837
ag6
(g21
S'r;\xc5@'
p838
tp839
Rp840
aaa(lp841
(g679
I11
tp842
a(lp843
g6
(g10
S'b\x9bz\x9c\x88"\xca?'
p844
tp845
Rp846
ag6
(g10
S'\x15\xf1\xefs\xe2\x0b\xd6?'
p847
tp848
Rp849
aF0.5502602666332476
ag6
(g21
S'\x00\x00\x00\x00'
p850
tp851
Rp852
ag6
(g21
S'\x18y\xce@'
p853
tp854
Rp855
aaa(lp856
(g679
I12
tp857
a(lp858
g6
(g10
S'\xf3\xbf\x85\xa4\xa2\x82\xe3?'
p859
tp860
Rp861
ag6
(g10
S'\x9d\xf0\xe6\xb0\xe8]\xf6?'
p862
tp863
Rp864
aF1.01301378572074
ag6
(g21
S'\x00\x00\x00\x00'
p865
tp866
Rp867
ag6
(g21
S'\xa8\xb6\xb1@'
p868
tp869
Rp870
aaa(lp871
(g679
I13
tp872
a(lp873
g6
(g10
S'\x7f\xf9\x0f\xc1N\xd9\xdc?'
p874
tp875
Rp876
ag6
(g10
S'G\xb9>A\xf8\xca\xea?'
p877
tp878
Rp879
aF0.796297012839989
ag6
(g21
S'\x00\x00\x00\x00'
p880
tp881
Rp882
ag6
(g21
S'\xa2\x05\xb4@'
p883
tp884
Rp885
aaa(lp886
(g679
I14
tp887
a(lp888
g6
(g10
S';&x\x84\xca\xfd\xa1?'
p889
tp890
Rp891
ag6
(g10
S'W\xa7\x08\xd2\xd5\x05\xa8?'
p892
tp893
Rp894
aF0.21373989350465028
ag6
(g21
S'\x00\x00\x00\x00'
p895
tp896
Rp897
ag6
(g21
S'\xe1\x9c\x88@'
p898
tp899
Rp900
aaa(lp901
(g679
I15
tp902
a(lp903
g6
(g10
S'\x00\x00\x00\x00\x00\x00\x00\x00'
p904
tp905
Rp906
ag6
(g10
S'\x00\x00\x00\x00\x00\x00\x00\x00'
p907
tp908
Rp909
aF0.0
ag6
(g21
S'\x00\x00\x00\x00'
p910
tp911
Rp912
ag912
aaa(lp913
(g679
I16
tp914
a(lp915
g6
(g10
S'{\x12\x9ea\x04\xa1\xe5?'
p916
tp917
Rp918
ag6
(g10
S'TM,\xd7\xd3\xef\xfa?'
p919
tp920
Rp921
aF1.1075664827282075
ag6
(g21
S'\x00\x00\x00\x00'
p922
tp923
Rp924
ag6
(g21
S'2y\xc7@'
p925
tp926
Rp927
aaa(lp928
(g679
I17
tp929
a(lp930
g6
(g10
S'o\xf4\xb6\x16>\xb1\xb9?'
p931
tp932
Rp933
ag6
(g10
S'\xd7\xbat\xd5\xbcQ\xc0?'
p934
tp935
Rp936
aF0.3426691598895263
ag6
(g21
S'\x00\x00\x00\x00'
p937
tp938
Rp939
ag6
(g21
S's\xb2\x8b@'
p940
tp941
Rp942
aaa(lp943
(g679
I18
tp944
a(lp945
g6
(g10
S'\xcd\xe7*F\x0e%\xe2?'
p946
tp947
Rp948
ag6
(g10
S'\xe7\x15G\xa6\xa4\xb1\xf2?'
p949
tp950
Rp951
aF0.9202469056987895
ag6
(g21
S'\x00\x00\x00\x00'
p952
tp953
Rp954
ag6
(g21
S'{F\x93@'
p955
tp956
Rp957
aaa(lp958
(g679
I19
tp959
a(lp960
g6
(g10
S'\xe0g\xd8\x9c\xbe\xfc\xba?'
p961
tp962
Rp963
ag6
(g10
S'r\xde=Wx\xa2\xc0?'
p964
tp965
Rp966
aF0.344739048788776
ag6
(g21
S'\x00\x00\x00\x00'
p967
tp968
Rp969
ag6
(g21
S'{_\x8a@'
p970
tp971
Rp972
aaa(lp973
(g679
I20
tp974
a(lp975
g6
(g10
S'\xc0\xf6\xe1\x05Q\xb9\xb2?'
p976
tp977
Rp978
ag6
(g10
S'\xac\xa5\x00|y{\xb2?'
p979
tp980
Rp981
aF0.25854802736374294
ag6
(g21
S'\x00\x00\x00\x00'
p982
tp983
Rp984
ag6
(g21
S'\x0c\x89W@'
p985
tp986
Rp987
aaa(lp988
(g679
I21
tp989
a(lp990
g6
(g10
S'\x8dF\xb99\xcd\x9e\xbc?'
p991
tp992
Rp993
ag6
(g10
S'm\xce\t\xbf\xf1\x16\xc9?'
p994
tp995
Rp996
aF0.4283852066111236
ag6
(g21
S'\x00\x00\x00\x00'
p997
tp998
Rp999
ag6
(g21
S'(!\xc7@'
p1000
tp1001
Rp1002
aaa(lp1003
(g679
I22
tp1004
a(lp1005
g6
(g10
S'\xc5d*\x8fhP\xce?'
p1006
tp1007
Rp1008
ag6
(g10
S'=\x80\xe7\x93\xd3\xb0\xdb?'
p1009
tp1010
Rp1011
aF0.6136609141683363
ag6
(g21
S'\x00\x00\x00\x00'
p1012
tp1013
Rp1014
ag6
(g21
S'\xee\xb4u@'
p1015
tp1016
Rp1017
aaa(lp1018
(g679
I23
tp1019
a(lp1020
g6
(g10
S'\xfc\x17\xcb\xe2\xfb\x8d\xc3?'
p1021
tp1022
Rp1023
ag6
(g10
S'\x8dC\xa0\xccqi\xc5?'
p1024
tp1025
Rp1026
aF0.37939634189172233
ag6
(g21
S'\x00\x00\x00\x00'
p1027
tp1028
Rp1029
ag6
(g21
S'\x83\xcc\x89@'
p1030
tp1031
Rp1032
aaa(lp1033
(g679
I24
tp1034
a(lp1035
g6
(g10
S'z\x14\xaeG\xe4\x8bm?'
p1036
tp1037
Rp1038
ag6
(g10
S's\x13q! \xa4^?'
p1039
tp1040
Rp1041
aF0.043094972463315125
ag6
(g21
S'\x00\x00\x00\x00'
p1042
tp1043
Rp1044
ag6
(g21
S'\xe5,\xf3?'
p1045
tp1046
Rp1047
aaa(lp1048
(g679
I25
tp1049
a(lp1050
g6
(g10
S'\xaf$\x97\x87Y\xe8\x92?'
p1051
tp1052
Rp1053
ag6
(g10
S'\xae8\xa9\x87}<\x8a?'
p1054
tp1055
Rp1056
aF0.1116680441239398
ag6
(g21
S'\x00\x00\x00\x00'
p1057
tp1058
Rp1059
ag6
(g21
S'\xc1},@'
p1060
tp1061
Rp1062
aaa(lp1063
(g679
I26
tp1064
a(lp1065
g6
(g10
S'q\xb1\xbf\x88\xfdN\xd9?'
p1066
tp1067
Rp1068
ag6
(g10
S'*\xb4\x8e\xe6\xc5-\xf2?'
p1069
tp1070
Rp1071
aF0.9898471458320919
ag6
(g21
S'\x00\x00\x00\x00'
p1072
tp1073
Rp1074
ag6
(g21
S'G\xa1\xe0@'
p1075
tp1076
Rp1077
aaa(lp1078
(g679
I27
tp1079
a(lp1080
g6
(g10
S'\x84\x8b\xb6<\x0b\xa9\xbe?'
p1081
tp1082
Rp1083
ag6
(g10
S'\x05*\xf8\x84\xf4Z\xc1?'
p1084
tp1085
Rp1086
aF0.3482012628497198
ag6
(g21
S'\x00\x00\x00\x00'
p1087
tp1088
Rp1089
ag6
(g21
S'{c%@'
p1090
tp1091
Rp1092
aaa(lp1093
(g679
I28
tp1094
a(lp1095
g6
(g10
S'\x00\x00\x00\x00\x00\x00\x00\x00'
p1096
tp1097
Rp1098
ag6
(g10
S'\x00\x00\x00\x00\x00\x00\x00\x00'
p1099
tp1100
Rp1101
aF0.0
ag6
(g21
S'\x00\x00\x00\x00'
p1102
tp1103
Rp1104
ag1104
aaa(lp1105
(g679
I29
tp1106
a(lp1107
g6
(g10
S'\x0c\x96\x17\x1e\xe1\xbc\xef?'
p1108
tp1109
Rp1110
ag6
(g10
S'\xa2\xf2\xe5\xac\xe8{\x02@'
p1111
tp1112
Rp1113
aF1.1518776532664776
ag6
(g21
S'\x00\x00\x00\x00'
p1114
tp1115
Rp1116
ag6
(g21
S'Z$\xc6@'
p1117
tp1118
Rp1119
aaa(lp1120
(g679
I30
tp1121
a(lp1122
g6
(g10
S'Ld\xa0s\x9c\x8c\xe2?'
p1123
tp1124
Rp1125
ag6
(g10
S'\x89\x91\xc0\x05iP\xfa?'
p1126
tp1127
Rp1128
aF1.1439495345523345
ag6
(g21
S'\x00\x00\x00\x00'
p1129
tp1130
Rp1131
ag6
(g21
S'\xa6\x18\x04A'
p1132
tp1133
Rp1134
aaa(lp1135
(g679
I31
tp1136
a(lp1137
g6
(g10
S'\xd2\xf4%\x90<\x0b\xba?'
p1138
tp1139
Rp1140
ag6
(g10
S'\xb71\x14 a\xba\xc5?'
p1141
tp1142
Rp1143
aF0.3992499841714638
ag6
(g21
S'\x00\x00\x00\x00'
p1144
tp1145
Rp1146
ag6
(g21
S'Po\xa3@'
p1147
tp1148
Rp1149
aaa(lp1150
(g679
I32
tp1151
a(lp1152
g6
(g10
S'\xae]\xe6f\x13\x19\xd8?'
p1153
tp1154
Rp1155
ag6
(g10
S'\xbc\xcd\xd7\xc1M\xf7\xe4?'
p1156
tp1157
Rp1158
aF0.7165285924131669
ag6
(g21
S'\x00\x00\x00\x00'
p1159
tp1160
Rp1161
ag6
(g21
S'\xe6n\xa5@'
p1162
tp1163
Rp1164
aaa(lp1165
(g679
I33
tp1166
a(lp1167
g6
(g10
S'\xf7\x9a\x0b\x95\x9bQ\xbf?'
p1168
tp1169
Rp1170
ag6
(g10
S'\xda\xe4\x15j\xc8t\xc8?'
p1171
tp1172
Rp1173
aF0.4196392533917797
ag6
(g21
S'\x00\x00\x00\x00'
p1174
tp1175
Rp1176
ag6
(g21
S'\x12\x1b\x98@'
p1177
tp1178
Rp1179
aaa(lp1180
(g679
I34
tp1181
a(lp1182
g6
(g10
S'h`TN$\xe0\xc0?'
p1183
tp1184
Rp1185
ag6
(g10
S'T\xe0\x1fl\x92.\xc0?'
p1186
tp1187
Rp1188
aF0.33021115651930166
ag6
(g21
S'\x00\x00\x00\x00'
p1189
tp1190
Rp1191
ag6
(g21
S'0\x9b6@'
p1192
tp1193
Rp1194
aaa(lp1195
(g679
I35
tp1196
a(lp1197
g6
(g10
S'\x8a@]\x1d\xe4\xd6\xd9?'
p1198
tp1199
Rp1200
ag6
(g10
S'$"\xfa\x0e\xbd~\xf1?'
p1201
tp1202
Rp1203
aF0.9645907403679503
ag6
(g21
S'\x00\x00\x00\x00'
p1204
tp1205
Rp1206
ag6
(g21
S'\x86\xcc\xbe@'
p1207
tp1208
Rp1209
aaa(lp1210
(g679
I36
tp1211
a(lp1212
g6
(g10
S'<\x7f\xd7\xa4\x9b\x1a\xc7?'
p1213
tp1214
Rp1215
ag6
(g10
S'\xb9\xf4\xe46\x8f\x16\xce?'
p1216
tp1217
Rp1218
aF0.4499815392374433
ag6
(g21
S'\x00\x00\x00\x00'
p1219
tp1220
Rp1221
ag6
(g21
S'Q\xed\x91@'
p1222
tp1223
Rp1224
aaa(lp1225
(g679
I37
tp1226
a(lp1227
g6
(g10
S'\x16F%,\xb0\x93\xdc?'
p1228
tp1229
Rp1230
ag6
(g10
S'6I\xac\xf1(\xa3\xef?'
p1231
tp1232
Rp1233
aF0.8884211163024504
ag6
(g21
S'\x00\x00\x00\x00'
p1234
tp1235
Rp1236
ag6
(g21
S'4K\xb2@'
p1237
tp1238
Rp1239
aaa(lp1240
(g679
I38
tp1241
a(lp1242
g6
(g10
S'\x0e\xc4\x8cy\xc7\xfc\xcd?'
p1243
tp1244
Rp1245
ag6
(g10
S'\xa4\x8ey\xe3DO\xdc?'
p1246
tp1247
Rp1248
aF0.6224569264689211
ag6
(g21
S'\x00\x00\x00\x00'
p1249
tp1250
Rp1251
ag6
(g21
S'=\x9b\xc5@'
p1252
tp1253
Rp1254
aaa(lp1255
(g679
I39
tp1256
a(lp1257
g6
(g10
S'\xcc\xdcP\xa4\xc5H\xe4?'
p1258
tp1259
Rp1260
ag6
(g10
S'\x15@\xf5&\x94`\xfa?'
p1261
tp1262
Rp1263
aF1.1165888876213688
ag6
(g21
S'\x00\x00\x00\x00'
p1264
tp1265
Rp1266
ag6
(g21
S'\x8f\xd2\xc7@'
p1267
tp1268
Rp1269
aaa(lp1270
(g679
I40
tp1271
a(lp1272
g6
(g10
S'\x05\x03.\xe5P@\xa5?'
p1273
tp1274
Rp1275
ag6
(g10
S'Wy\xcc>\xb6\xd3\xa8?'
p1276
tp1277
Rp1278
aF0.21625785354290133
ag6
(g21
S'\x00\x00\x00\x00'
p1279
tp1280
Rp1281
ag6
(g21
S'e)S@'
p1282
tp1283
Rp1284
aaa(lp1285
(g679
I41
tp1286
a(lp1287
g6
(g10
S'\x1fd\xf1\xe9\xfc\xcc\xc7?'
p1288
tp1289
Rp1290
ag6
(g10
S'!\xe1\xce\x1dYS\xd0?'
p1291
tp1292
Rp1293
aF0.46958734875599484
ag6
(g21
S'\x00\x00\x00\x00'
p1294
tp1295
Rp1296
ag6
(g21
S'\xcc\xb3\x7f@'
p1297
tp1298
Rp1299
aaa(lp1300
(g679
I42
tp1301
a(lp1302
g6
(g10
S'\xb7\xeas\xd1c)\xcc?'
p1303
tp1304
Rp1305
ag6
(g10
S'\xfb%\xbb\xcb\x902\xd7?'
p1306
tp1307
Rp1308
aF0.5604065549884899
ag6
(g21
S'\x00\x00\x00\x00'
p1309
tp1310
Rp1311
ag6
(g21
S'\xd2\xee\x9c@'
p1312
tp1313
Rp1314
aaa(lp1315
(g679
I43
tp1316
a(lp1317
g6
(g10
S'\x00\x00\x00\x00\x00\x00\x00\x00'
p1318
tp1319
Rp1320
ag6
(g10
S'\x00\x00\x00\x00\x00\x00\x00\x00'
p1321
tp1322
Rp1323
aF0.0
ag6
(g21
S'\x00\x00\x00\x00'
p1324
tp1325
Rp1326
ag1326
aaa(lp1327
(g679
I44
tp1328
a(lp1329
g6
(g10
S'\xc2\x04Y/\xe3\xdd\xa0?'
p1330
tp1331
Rp1332
ag6
(g10
S"'\\t\xc5\xb6\xbd\x9f?"
p1333
tp1334
Rp1335
aF0.17295058922388457
ag6
(g21
S'\x00\x00\x00\x00'
p1336
tp1337
Rp1338
ag6
(g21
S'ksT@'
p1339
tp1340
Rp1341
aaa(lp1342
(g679
I45
tp1343
a(lp1344
g6
(g10
S'\xf9{\xbc)\xdd\xdd\xdc?'
p1345
tp1346
Rp1347
ag6
(g10
S'\xa8\xa1 3&m\xee?'
p1348
tp1349
Rp1350
aF0.8645145720983672
ag6
(g21
S'\x00\x00\x00\x00'
p1351
tp1352
Rp1353
ag6
(g21
S'\x85\xd1\xd1@'
p1354
tp1355
Rp1356
aaa(lp1357
(g679
I46
tp1358
a(lp1359
g6
(g10
S':W6\x1f\xce\xc0\xd2?'
p1360
tp1361
Rp1362
ag6
(g10
S'\x96__\x91&\xae\xe1?'
p1363
tp1364
Rp1365
aF0.6831172221316585
ag6
(g21
S'\x00\x00\x00\x00'
p1366
tp1367
Rp1368
ag6
(g21
S'\x1e\xad\xa0@'
p1369
tp1370
Rp1371
aaa(lp1372
(g679
I47
tp1373
a(lp1374
g6
(g10
S'\xae\x82\xd1_\xdc\x80\xed?'
p1375
tp1376
Rp1377
ag6
(g10
S'\xd9B^\xa7b\xaa\x03@'
p1378
tp1379
Rp1380
aF1.2681280325157012
ag6
(g21
S'\x00\x00\x00\x00'
p1381
tp1382
Rp1383
ag6
(g21
S'k\xed\xc4@'
p1384
tp1385
Rp1386
aaa(lp1387
(g679
I48
tp1388
a(lp1389
g6
(g10
S'S\xc1\x88\xef\xe6\x00\xc2?'
p1390
tp1391
Rp1392
ag6
(g10
S'\x1bD\xa1m\xb9\x00\xcc?'
p1393
tp1394
Rp1395
aF0.44608179817613614
ag6
(g21
S'\x00\x00\x00\x00'
p1396
tp1397
Rp1398
ag6
(g21
S'$\xc7\xaa@'
p1399
tp1400
Rp1401
aaa(lp1402
(g679
I49
tp1403
a(lp1404
g6
(g10
S'\x00\x00\x00\x00\x00\x00\x00\x00'
p1405
tp1406
Rp1407
ag6
(g10
S'\x00\x00\x00\x00\x00\x00\x00\x00'
p1408
tp1409
Rp1410
aF0.0
ag6
(g21
S'\x00\x00\x00\x00'
p1411
tp1412
Rp1413
ag1413
aaa(lp1414
(g679
I50
tp1415
a(lp1416
g6
(g10
S'\x00\x00\x00\x00\x00\x00\x00\x00'
p1417
tp1418
Rp1419
ag6
(g10
S'\x00\x00\x00\x00\x00\x00\x00\x00'
p1420
tp1421
Rp1422
aF0.0
ag6
(g21
S'\x00\x00\x00\x00'
p1423
tp1424
Rp1425
ag1425
aaa(lp1426
(g679
I51
tp1427
a(lp1428
g6
(g10
S'H\x1b\xe8\xc4/<\xd7?'
p1429
tp1430
Rp1431
ag6
(g10
S'\xfe\x11\x9a\xc9\xaaY\xe0?'
p1432
tp1433
Rp1434
aF0.615744657653206
ag6
(g21
S'\x00\x00\x00\x00'
p1435
tp1436
Rp1437
ag6
(g21
S'B"|@'
p1438
tp1439
Rp1440
aaa(lp1441
(g679
I52
tp1442
a(lp1443
g6
(g10
S'k\xdby\xa1\xb2\xf7\xe3?'
p1444
tp1445
Rp1446
ag6
(g10
S'\xf9J\xc7IW\xc8\xfd?'
p1447
tp1448
Rp1449
aF1.2132815671570334
ag6
(g21
S'\x00\x00\x00\x00'
p1450
tp1451
Rp1452
ag6
(g21
S'\xaa\x99\xc8@'
p1453
tp1454
Rp1455
aaa(lp1456
(g679
I53
tp1457
a(lp1458
g6
(g10
S'%\xc4L6\x8b\x9b\xe0?'
p1459
tp1460
Rp1461
ag6
(g10
S' \x86\x91\x1f\x8b\xef\xef?'
p1462
tp1463
Rp1464
aF0.8536060842741064
ag6
(g21
S'\x00\x00\x00\x00'
p1465
tp1466
Rp1467
ag6
(g21
S'\xf7\xd6\xc2@'
p1468
tp1469
Rp1470
aaa(lp1471
(g679
I54
tp1472
a(lp1473
g6
(g10
S"'Aa*\xd5E\xe4?"
p1474
tp1475
Rp1476
ag6
(g10
S'F\x1f\xda<\xcf\x12\xf9?'
p1477
tp1478
Rp1479
aF1.0796938827552711
ag6
(g21
S'\x00\x00\x00\x00'
p1480
tp1481
Rp1482
ag6
(g21
S'v4\xe5@'
p1483
tp1484
Rp1485
aaa(lp1486
(g679
I55
tp1487
a(lp1488
g6
(g10
S'Y\x01r\x0f\xd0\xdd\xad?'
p1489
tp1490
Rp1491
ag6
(g10
S'\xc7\xf05\xebh\x9e\xb9?'
p1492
tp1493
Rp1494
aF0.3109190610834339
ag6
(g21
S'\x00\x00\x00\x00'
p1495
tp1496
Rp1497
ag6
(g21
S'\xf7<\x85@'
p1498
tp1499
Rp1500
aaa(lp1501
(g679
I56
tp1502
a(lp1503
g6
(g10
S'\x82o\xd5v<\x17\xdb?'
p1504
tp1505
Rp1506
ag6
(g10
S'"V\x8azN\xb9\xed?'
p1507
tp1508
Rp1509
aF0.8658482982331177
ag6
(g21
S'\x00\x00\x00\x00'
p1510
tp1511
Rp1512
ag6
(g21
S'\xfd\x98\xbb@'
p1513
tp1514
Rp1515
aaa(lp1516
(g679
I57
tp1517
a(lp1518
g6
(g10
S'\xb8\x92\x847\xee\xd6\xc3?'
p1519
tp1520
Rp1521
ag6
(g10
S'\xa9\xf7\x1ccp\x8a\xce?'
p1522
tp1523
Rp1524
aF0.46322333593548815
ag6
(g21
S'\x00\x00\x00\x00'
p1525
tp1526
Rp1527
ag6
(g21
S'\x8c\xd9\x8c@'
p1528
tp1529
Rp1530
aaa(lp1531
(g679
I58
tp1532
a(lp1533
g6
(g10
S'a\xd5\xc2\xad\xc6Z\xc5?'
p1534
tp1535
Rp1536
ag6
(g10
S'\x8a\xfd{\xfe@\x9e\xd5?'
p1537
tp1538
Rp1539
aF0.5567323221657824
ag6
(g21
S'\x00\x00\x00\x00'
p1540
tp1541
Rp1542
ag6
(g21
S'\xd91\xb2@'
p1543
tp1544
Rp1545
aaa(lp1546
(g679
I59
tp1547
a(lp1548
g6
(g10
S'\xa18\xfb^A\xd9\xb3?'
p1549
tp1550
Rp1551
ag6
(g10
S'\x86\xa3\xf0\xab<\x82\xb9?'
p1552
tp1553
Rp1554
aF0.30599349369284656
ag6
(g21
S'\x00\x00\x00\x00'
p1555
tp1556
Rp1557
ag6
(g21
S')\xa6\x82@'
p1558
tp1559
Rp1560
aaa(lp1561
(g679
I60
tp1562
a(lp1563
g6
(g10
S'\xa7\xd2\x03e\x0f\x83\xdb?'
p1564
tp1565
Rp1566
ag6
(g10
S'r\x97ZQ\xe8N\xef?'
p1567
tp1568
Rp1569
aF0.8908368925415572
ag6
(g21
S'\x00\x00\x00\x00'
p1570
tp1571
Rp1572
ag6
(g21
S'\x07\x16\xb9@'
p1573
tp1574
Rp1575
aaa(lp1576
(g679
I61
tp1577
a(lp1578
g6
(g10
S'\xf0=yH\xadxw?'
p1579
tp1580
Rp1581
ag6
(g10
S'\xa1!~\x99\xba\xb0q?'
p1582
tp1583
Rp1584
aF0.06546828137016686
ag6
(g21
S'\x00\x00\x00\x00'
p1585
tp1586
Rp1587
ag6
(g21
S'\xfb\x1f(@'
p1588
tp1589
Rp1590
aaa(lp1591
(g679
I62
tp1592
a(lp1593
g6
(g10
S'\x00\x00\x00\x00\x00\x00\x00\x00'
p1594
tp1595
Rp1596
ag6
(g10
S'\x00\x00\x00\x00\x00\x00\x00\x00'
p1597
tp1598
Rp1599
aF0.0
ag6
(g21
S'\x00\x00\x00\x00'
p1600
tp1601
Rp1602
ag1602
aaa(lp1603
(g679
I63
tp1604
a(lp1605
g6
(g10
S'\xdf\x9f\x1a\xffm\x9d\x97?'
p1606
tp1607
Rp1608
ag6
(g10
S'N\xb1\xa2\xc8\xd3L\x9e?'
p1609
tp1610
Rp1611
aF0.1704644120316811
ag6
(g21
S'\x00\x00\x00\x00'
p1612
tp1613
Rp1614
ag6
(g21
S'\x99\xa3i@'
p1615
tp1616
Rp1617
aaa(lp1618
(g679
I64
tp1619
a(lp1620
g6
(g10
S'\x00\x00\x00\x00\x00\x00\x00\x00'
p1621
tp1622
Rp1623
ag6
(g10
S'\x00\x00\x00\x00\x00\x00\x00\x00'
p1624
tp1625
Rp1626
aF0.0
ag6
(g21
S'\x00\x00\x00\x00'
p1627
tp1628
Rp1629
ag1629
aaa(lp1630
(g679
I65
tp1631
a(lp1632
g6
(g10
S'\xaf\x0f_gJ\xd0\xdf?'
p1633
tp1634
Rp1635
ag6
(g10
S'\xee\x11AW\x15\xa8\xf1?'
p1636
tp1637
Rp1638
aF0.9254401363774191
ag6
(g21
S'\x00\x00\x00\x00'
p1639
tp1640
Rp1641
ag6
(g21
S'\xb5@\xce@'
p1642
tp1643
Rp1644
aaa(lp1645
(g679
I66
tp1646
a(lp1647
g6
(g10
S'\x0b\\jM=\xea\xd4?'
p1648
tp1649
Rp1650
ag6
(g10
S'?\xc2\xc3,\xe3j\xe6?'
p1651
tp1652
Rp1653
aF0.7705527901917368
ag6
(g21
S'\x00\x00\x00\x00'
p1654
tp1655
Rp1656
ag6
(g21
S';^\xb0@'
p1657
tp1658
Rp1659
aaa(lp1660
(g679
I67
tp1661
a(lp1662
g6
(g10
S'\x85\xa5Q\xc92\x9b\xd3?'
p1663
tp1664
Rp1665
ag6
(g10
S'\xce1M5\x05\xd6\xe2?'
p1666
tp1667
Rp1668
aF0.7034036567080848
ag6
(g21
S'\x00\x00\x00\x00'
p1669
tp1670
Rp1671
ag6
(g21
S'>\xc4\x9e@'
p1672
tp1673
Rp1674
aaa(lp1675
(g679
I68
tp1676
a(lp1677
g6
(g10
S'\xa0\x1a/E\xb8\x14\xce?'
p1678
tp1679
Rp1680
ag6
(g10
S'\xa8\x8c\xba\xda\xf6\xc1\xd9?'
p1681
tp1682
Rp1683
aF0.5892666630522505
ag6
(g21
S'\x00\x00\x00\x00'
p1684
tp1685
Rp1686
ag6
(g21
S'\x02\xc3\x87@'
p1687
tp1688
Rp1689
aaa(lp1690
(g679
I69
tp1691
a(lp1692
g6
(g10
S'i$\xbc\x97\xcc\xa9\xd5?'
p1693
tp1694
Rp1695
ag6
(g10
S'\x97\xf0\xde\xb0\xd7:\xe8?'
p1696
tp1697
Rp1698
aF0.8016285386134779
ag6
(g21
S'\x00\x00\x00\x00'
p1699
tp1700
Rp1701
ag6
(g21
S'I\x9d\xca@'
p1702
tp1703
Rp1704
aaa(lp1705
(g679
I70
tp1706
a(lp1707
g6
(g10
S'\xd9\xff\x1a\x17S\xd2\xda?'
p1708
tp1709
Rp1710
ag6
(g10
S'\x9c\xcap\r\xbc\xdb\xe9?'
p1711
tp1712
Rp1713
aF0.7952603306215611
ag6
(g21
S'\x00\x00\x00\x00'
p1714
tp1715
Rp1716
ag6
(g21
S'P\xd2\xae@'
p1717
tp1718
Rp1719
aaa(lp1720
(g679
I71
tp1721
a(lp1722
g6
(g10
S'{V\xfd\xeec\x92\xc0?'
p1723
tp1724
Rp1725
ag6
(g10
S'O\xd0\xbc\x83E\x0c\xce?'
p1726
tp1727
Rp1728
aF0.4668914964932559
ag6
(g21
S'\x00\x00\x00\x00'
p1729
tp1730
Rp1731
ag6
(g21
S'\xf2D\xaa@'
p1732
tp1733
Rp1734
aaa(lp1735
(g679
I72
tp1736
a(lp1737
g6
(g10
S'\x00\x00\x00\x00\x00\x00\x00\x00'
p1738
tp1739
Rp1740
ag6
(g10
S'\x00\x00\x00\x00\x00\x00\x00\x00'
p1741
tp1742
Rp1743
aF0.0
ag6
(g21
S'\x00\x00\x00\x00'
p1744
tp1745
Rp1746
ag1746
aaa(lp1747
(g679
I73
tp1748
a(lp1749
g6
(g10
S'\xd7\xc0\x81\x17\xc3\xb9\xe0?'
p1750
tp1751
Rp1752
ag6
(g10
S'\x1d\t\x99\xe1[\x97\xf3?'
p1753
tp1754
Rp1755
aF0.9753269307035414
ag6
(g21
S'\x00\x00\x00\x00'
p1756
tp1757
Rp1758
ag6
(g21
S'\xfe\xe2\xaf@'
p1759
tp1760
Rp1761
aaa(lp1762
(g679
I74
tp1763
a(lp1764
g6
(g10
S'_i\xde/F\x8e\xd2?'
p1765
tp1766
Rp1767
ag6
(g10
S'\x02k\xf8\xd8`q\xe2?'
p1768
tp1769
Rp1770
aF0.7016256553932981
ag6
(g21
S'\x00\x00\x00\x00'
p1771
tp1772
Rp1773
ag6
(g21
S'v\xa2\xa1@'
p1774
tp1775
Rp1776
aaa(lp1777
(g679
I75
tp1778
a(lp1779
g6
(g10
S'\x00\x00\x00\x00\x00\x00\x00\x00'
p1780
tp1781
Rp1782
ag6
(g10
S'\x00\x00\x00\x00\x00\x00\x00\x00'
p1783
tp1784
Rp1785
aF0.0
ag6
(g21
S'\x00\x00\x00\x00'
p1786
tp1787
Rp1788
ag1788
aaa(lp1789
(g679
I76
tp1790
a(lp1791
g6
(g10
S'\xe8P\x90\x87S\xc9\xd2?'
p1792
tp1793
Rp1794
ag6
(g10
S'?\xc3Q-\x95\xb4\xd8?'
p1795
tp1796
Rp1797
aF0.5475923193168084
ag6
(g21
S'\x00\x00\x00\x00'
p1798
tp1799
Rp1800
ag6
(g21
S'\t\xea\x90@'
p1801
tp1802
Rp1803
aaa(lp1804
(g679
I77
tp1805
a(lp1806
g6
(g10
S'\x00\x00\x00\x00\x00\x00\x00\x00'
p1807
tp1808
Rp1809
ag6
(g10
S'\x00\x00\x00\x00\x00\x00\x00\x00'
p1810
tp1811
Rp1812
aF0.0
ag6
(g21
S'\x00\x00\x00\x00'
p1813
tp1814
Rp1815
ag1815
aaa(lp1816
(g679
I78
tp1817
a(lp1818
g6
(g10
S'gt$[\xb2\xdb\xd9?'
p1819
tp1820
Rp1821
ag6
(g10
S'Vx\xaf\xe8h\xe4\xe9?'
p1822
tp1823
Rp1824
aF0.8036718252407126
ag6
(g21
S'\x00\x00\x00\x00'
p1825
tp1826
Rp1827
ag6
(g21
S'!c\xb3@'
p1828
tp1829
Rp1830
aaa(lp1831
(g679
I79
tp1832
a(lp1833
g6
(g10
S'o\x90\xeaNp\x15\x9b?'
p1834
tp1835
Rp1836
ag6
(g10
S'\xeb\xb0B\x80q?\xa1?'
p1837
tp1838
Rp1839
aF0.18162491969161537
ag6
(g21
S'\x00\x00\x00\x00'
p1840
tp1841
Rp1842
ag6
(g21
S'\xfa\x80\x9a@'
p1843
tp1844
Rp1845
aaa(lp1846
(g679
I80
tp1847
a(lp1848
g6
(g10
S'\xa7\xde\xdb\xe1\xd6\xe7\xdb?'
p1849
tp1850
Rp1851
ag6
(g10
S'\xce\xb9\xc1\x103m\xef?'
p1852
tp1853
Rp1854
aF0.8899224154361498
ag6
(g21
S'\x00\x00\x00\x00'
p1855
tp1856
Rp1857
ag6
(g21
S'\xca\x16\xc8@'
p1858
tp1859
Rp1860
aaa(lp1861
(g679
I81
tp1862
a(lp1863
g6
(g10
S'\x99\x94%\x18\xae\x1c\xe5?'
p1864
tp1865
Rp1866
ag6
(g10
S'\xb9B\xb4\xa2\xbe\x13\xf7?'
p1867
tp1868
Rp1869
aF1.0035183685553468
ag6
(g21
S'\x00\x00\x00\x00'
p1870
tp1871
Rp1872
ag6
(g21
S'/\xcf\xc3@'
p1873
tp1874
Rp1875
aaa(lp1876
(g679
I82
tp1877
a(lp1878
g6
(g10
S'\xfe\x15\xc5\xb7/\xe5\xca?'
p1879
tp1880
Rp1881
ag6
(g10
S'u\x16\xff\\\x0b\xdd\xd2?'
p1882
tp1883
Rp1884
aF0.5005910454019694
ag6
(g21
S'\x00\x00\x00\x00'
p1885
tp1886
Rp1887
ag6
(g21
S'\xdc\xa8|@'
p1888
tp1889
Rp1890
aaa(lp1891
(g679
I83
tp1892
a(lp1893
g6
(g10
S'ji\x8f\x0c[\xda\xd7?'
p1894
tp1895
Rp1896
ag6
(g10
S'\x00Z\xdc%\x1e\xbc\xe5?'
p1897
tp1898
Rp1899
aF0.7350554648478403
ag6
(g21
S'\x00\x00\x00\x00'
p1900
tp1901
Rp1902
ag6
(g21
S'\xcau\xae@'
p1903
tp1904
Rp1905
aaa(lp1906
(g679
I84
tp1907
a(lp1908
g6
(g10
S'\xe3\x16\x08\x08\xc3\xbb\xe7?'
p1909
tp1910
Rp1911
ag6
(g10
S'C\x85\xe4l\xce\xd4\x02@'
p1912
tp1913
Rp1914
aF1.3430691507550498
ag6
(g21
S'\x00\x00\x00\x00'
p1915
tp1916
Rp1917
ag6
(g21
S'Q\xb6\xe4@'
p1918
tp1919
Rp1920
aaa(lp1921
(g679
I85
tp1922
a(lp1923
g6
(g10
S'\xde8 \xc6|E\xca?'
p1924
tp1925
Rp1926
ag6
(g10
S'\x90\x10\xde\xa7D)\xdb?'
p1927
tp1928
Rp1929
aF0.6182783023715855
ag6
(g21
S'\x00\x00\x00\x00'
p1930
tp1931
Rp1932
ag6
(g21
S'\xc7\x8c\xaa@'
p1933
tp1934
Rp1935
aaa(lp1936
(g679
I86
tp1937
a(lp1938
g6
(g10
S'4<=]/\x94\xdf?'
p1939
tp1940
Rp1941
ag6
(g10
S'\xb2\x16\x82m\xa8\x0f\xf5?'
p1942
tp1943
Rp1944
aF1.0357895229911032
ag6
(g21
S'\x00\x00\x00\x00'
p1945
tp1946
Rp1947
ag6
(g21
S"\x94'\xde@"
p1948
tp1949
Rp1950
aaa(lp1951
(g679
I87
tp1952
a(lp1953
g6
(g10
S'\x98]\x01f\xc4!s?'
p1954
tp1955
Rp1956
ag6
(g10
S'\x87\x15}\xfa\xd6kp?'
p1957
tp1958
Rp1959
aF0.06314488845475424
ag6
(g21
S'\x00\x00\x00\x00'
p1960
tp1961
Rp1962
ag6
(g21
S'\x06Y\x1d@'
p1963
tp1964
Rp1965
aaa(lp1966
(g679
I88
tp1967
a(lp1968
g6
(g10
S'\xef\x19\xd1\x90\x16\x13\xc2?'
p1969
tp1970
Rp1971
ag6
(g10
S'\xa0\x05\xfc\xb1\xbf-\xd0?'
p1972
tp1973
Rp1974
aF0.4825481539698652
ag6
(g21
S'\x00\x00\x00\x00'
p1975
tp1976
Rp1977
ag6
(g21
S'}gs@'
p1978
tp1979
Rp1980
aaa(lp1981
(g679
I89
tp1982
a(lp1983
g6
(g10
S'O\x05Y<2\xb1L?'
p1984
tp1985
Rp1986
ag6
(g10
S'\x9f,\xb8w\xc5\xb4E?'
p1987
tp1988
Rp1989
aF0.025722598295352977
ag6
(g21
S'\x00\x00\x00\x00'
p1990
tp1991
Rp1992
ag6
(g21
S'.\x0f\xf7?'
p1993
tp1994
Rp1995
aaa(lp1996
(g679
I90
tp1997
a(lp1998
g6
(g10
S'f\x87`s\xa3\x9c\xca?'
p1999
tp2000
Rp2001
ag6
(g10
S'u@\x17\xd2\x00\r\xde?'
p2002
tp2003
Rp2004
aF0.6529311366965729
ag6
(g21
S'\x00\x00\x00\x00'
p2005
tp2006
Rp2007
ag6
(g21
S'=y\xd8@'
p2008
tp2009
Rp2010
aaa(lp2011
(g679
I91
tp2012
a(lp2013
g6
(g10
S'1\xc4\x0c\xb9\xebL\xe3?'
p2014
tp2015
Rp2016
ag6
(g10
S'qQ2\x05&\xb5\xf4?'
p2017
tp2018
Rp2019
aF0.9645974082023552
ag6
(g21
S'\x00\x00\x00\x00'
p2020
tp2021
Rp2022
ag6
(g21
S'}%\xb4@'
p2023
tp2024
Rp2025
aaa(lp2026
(g679
I92
tp2027
a(lp2028
g6
(g10
S'V6\x86\xe5\xbe\x7f\xd5?'
p2029
tp2030
Rp2031
ag6
(g10
S'\xd0\x9f\x88Y\x99\x11\xe2?'
p2032
tp2033
Rp2034
aF0.6721642230683843
ag6
(g21
S'\x00\x00\x00\x00'
p2035
tp2036
Rp2037
ag6
(g21
S'\x10\xd0\xa7@'
p2038
tp2039
Rp2040
aaa(lp2041
(g679
I93
tp2042
a(lp2043
g6
(g10
S'T~\xf17O\xb2\xce?'
p2044
tp2045
Rp2046
ag6
(g10
S'\xfdK\xa7\x8c;\xb7\xd4?'
p2047
tp2048
Rp2049
aF0.5159182520927897
ag6
(g21
S'\x00\x00\x00\x00'
p2050
tp2051
Rp2052
ag6
(g21
S'\xec,\xc7@'
p2053
tp2054
Rp2055
aaa(lp2056
(g679
I94
tp2057
a(lp2058
g6
(g10
S'>d\xd6#tX\xdc?'
p2059
tp2060
Rp2061
ag6
(g10
S'\xea\xe9D\xff\xa9\x1e\xeb?'
p2062
tp2063
Rp2064
aF0.80705256194636
ag6
(g21
S'\x00\x00\x00\x00'
p2065
tp2066
Rp2067
ag6
(g21
S'q\xdf\xd7@'
p2068
tp2069
Rp2070
aaa(lp2071
(g679
I95
tp2072
a(lp2073
g6
(g10
S'\x1a\xd1\x81\xd0\xf6*\xf3?'
p2074
tp2075
Rp2076
ag6
(g10
S'2\xe9\xcclz\x84\t@'
p2077
tp2078
Rp2079
aF1.3245785369985548
ag6
(g21
S'\x00\x00\x00\x00'
p2080
tp2081
Rp2082
ag6
(g21
S'\xf1\x06\xf3@'
p2083
tp2084
Rp2085
aaa(lp2086
(g679
I96
tp2087
a(lp2088
g6
(g10
S'S\x96\x17\x0e\xf9\xa0\xe4?'
p2089
tp2090
Rp2091
ag6
(g10
S'\x17\xaf\x8a\xb0Y\x94\xf6?'
p2092
tp2093
Rp2094
aF0.9978199804900247
ag6
(g21
S'\x00\x00\x00\x00'
p2095
tp2096
Rp2097
ag6
(g21
S'T\xa3\xa5@'
p2098
tp2099
Rp2100
aaa(lp2101
(g679
I97
tp2102
a(lp2103
g6
(g10
S'\xdb\x89\x8b\xd5\xa2t\xc3?'
p2104
tp2105
Rp2106
ag6
(g10
S'\x1a\xd7\xd9\xe6\xb0\x02\xce?'
p2107
tp2108
Rp2109
aF0.4597325859197971
ag6
(g21
S'\x00\x00\x00\x00'
p2110
tp2111
Rp2112
ag6
(g21
S'\x12\x1d}@'
p2113
tp2114
Rp2115
aaa(lp2116
(g679
I98
tp2117
a(lp2118
g6
(g10
S',\x94,%\x87\x05\xd3?'
p2119
tp2120
Rp2121
ag6
(g10
S'\x14\x0b\x0fw\xb7\x14\xe3?'
p2122
tp2123
Rp2124
aF0.7127016769566838
ag6
(g21
S'\x00\x00\x00\x00'
p2125
tp2126
Rp2127
ag6
(g21
S'=\xbe\x94@'
p2128
tp2129
Rp2130
aaa(lp2131
(g679
I99
tp2132
a(lp2133
g6
(g10
S'\xa8,\xaed\xe7\xdd\xf7?'
p2134
tp2135
Rp2136
ag6
(g10
S'\x826\xb4\x16.\x86\x0f@'
p2137
tp2138
Rp2139
aF1.3097408315091164
ag6
(g21
S'\x00\x00\x00\x00'
p2140
tp2141
Rp2142
ag6
(g21
S':$\xdc@'
p2143
tp2144
Rp2145
aaa(lp2146
(g679
I100
tp2147
a(lp2148
g6
(g10
S'\x98h\xf6\xbf\xf6\x06\xba?'
p2149
tp2150
Rp2151
ag6
(g10
S'K\xacK\xa9\xc9\xa3\xc6?'
p2152
tp2153
Rp2154
aF0.408089289667249
ag6
(g21
S'\x00\x00\x00\x00'
p2155
tp2156
Rp2157
ag6
(g21
S'\xe3\xac\xb6@'
p2158
tp2159
Rp2160
aaa(lp2161
(g679
I101
tp2162
a(lp2163
g6
(g10
S'zw\xb7\xd5s\xf4\xeb?'
p2164
tp2165
Rp2166
ag6
(g10
S'F\xb3\x86\x11\x92\x05\x00@'
p2167
tp2168
Rp2169
aF1.1133552169812035
ag6
(g21
S'\x00\x00\x00\x00'
p2170
tp2171
Rp2172
ag6
(g21
S'\xb2I\xc7@'
p2173
tp2174
Rp2175
aaa(lp2176
(g679
I102
tp2177
a(lp2178
g6
(g10
S'\x8cPF\xc3K~\xc7?'
p2179
tp2180
Rp2181
ag6
(g10
S'\xbd\xe8\xaf\x1d\x11\x01\xd2?'
p2182
tp2183
Rp2184
aF0.4976218878046806
ag6
(g21
S'\x00\x00\x00\x00'
p2185
tp2186
Rp2187
ag6
(g21
S'\xb0Q\x86@'
p2188
tp2189
Rp2190
aaa(lp2191
(g679
I103
tp2192
a(lp2193
g6
(g10
S"\xb0\x8d+\x80\xea'\xb6?"
p2194
tp2195
Rp2196
ag6
(g10
S'\xfc\x8c>\x9d\xaf\x1d\xba?'
p2197
tp2198
Rp2199
aF0.3074494487074018
ag6
(g21
S'\x00\x00\x00\x00'
p2200
tp2201
Rp2202
ag6
(g21
S'\xf1}b@'
p2203
tp2204
Rp2205
aaa(lp2206
(g679
I104
tp2207
a(lp2208
g6
(g10
S'\x00\x00\x00\x00\x00\x00\x00\x00'
p2209
tp2210
Rp2211
ag6
(g10
S'\x00\x00\x00\x00\x00\x00\x00\x00'
p2212
tp2213
Rp2214
aF0.0
ag6
(g21
S'\x00\x00\x00\x00'
p2215
tp2216
Rp2217
ag2217
aaa(lp2218
(g679
I105
tp2219
a(lp2220
g6
(g10
S'\xc7\x1b\xf1\xb0\xe2\xfe\xe2?'
p2221
tp2222
Rp2223
ag6
(g10
S'<l\x9d4\xe3\xec\xfe?'
p2224
tp2225
Rp2226
aF1.2571620186002452
ag6
(g21
S'\x00\x00\x00\x00'
p2227
tp2228
Rp2229
ag6
(g21
S'2{\xe7@'
p2230
tp2231
Rp2232
aaa(lp2233
(g679
I106
tp2234
a(lp2235
g6
(g10
S'\xf6|\xa4\xb4\xd1\xf5\xe3?'
p2236
tp2237
Rp2238
ag6
(g10
S'\xae\xf8\xaea$\xf9\xf8?'
p2239
tp2240
Rp2241
aF1.082475237500004
ag6
(g21
S'\x00\x00\x00\x00'
p2242
tp2243
Rp2244
ag6
(g21
S'\xcd%\xd2@'
p2245
tp2246
Rp2247
aaa(lp2248
(g679
I107
tp2249
a(lp2250
g6
(g10
S'\xb5\x9b)h\xfc\xb5\xe6?'
p2251
tp2252
Rp2253
ag6
(g10
S'\xc4\xb1\xe3A\xee\xd1\xfb?'
p2254
tp2255
Rp2256
aF1.1113312335930317
ag6
(g21
S'\x00\x00\x00\x00'
p2257
tp2258
Rp2259
ag6
(g21
S'\x14_\xd7@'
p2260
tp2261
Rp2262
aaa(lp2263
(g679
I108
tp2264
a(lp2265
g6
(g10
S'\x00\x00\x00\x00\x00\x00\x00\x00'
p2266
tp2267
Rp2268
ag6
(g10
S'\x00\x00\x00\x00\x00\x00\x00\x00'
p2269
tp2270
Rp2271
aF0.0
ag6
(g21
S'\x00\x00\x00\x00'
p2272
tp2273
Rp2274
ag2274
aaa(lp2275
(g679
I109
tp2276
a(lp2277
g6
(g10
S'\x9c\x12\xa8\x83h3\xcc?'
p2278
tp2279
Rp2280
ag6
(g10
S'\xa3C*\xb8H\xb4\xdc?'
p2281
tp2282
Rp2283
aF0.6324264919067585
ag6
(g21
S'\x00\x00\x00\x00'
p2284
tp2285
Rp2286
ag6
(g21
S'BM\xb1@'
p2287
tp2288
Rp2289
aaa(lp2290
(g679
I110
tp2291
a(lp2292
g6
(g10
S'\xe4\x89\xfae\xfd\xd7\xb7?'
p2293
tp2294
Rp2295
ag6
(g10
S'\x86v\xfb\x1c\x99\xfb\xbe?'
p2296
tp2297
Rp2298
aF0.3351889274552168
ag6
(g21
S'\x00\x00\x00\x00'
p2299
tp2300
Rp2301
ag6
(g21
S'\xbc\x98\x8a@'
p2302
tp2303
Rp2304
aaa(lp2305
(g679
I111
tp2306
a(lp2307
g6
(g10
S'\x1f\xb2\x1d\x8e\xe9C\xd4?'
p2308
tp2309
Rp2310
ag6
(g10
S';"\xa8\xa8\x0f\xcd\xe3?'
p2311
tp2312
Rp2313
aF0.72008180078405
ag6
(g21
S'\x00\x00\x00\x00'
p2314
tp2315
Rp2316
ag6
(g21
S'\xd0\xd5\xa7@'
p2317
tp2318
Rp2319
aaa(lp2320
(g679
I112
tp2321
a(lp2322
g6
(g10
S'\xc2\x13\xf5J\x13J\xd0?'
p2323
tp2324
Rp2325
ag6
(g10
S'<\xf0\xb49\xbd#\xdf?'
p2326
tp2327
Rp2328
aF0.6494423018251404
ag6
(g21
S'\x00\x00\x00\x00'
p2329
tp2330
Rp2331
ag6
(g21
S'%\x0f\xbc@'
p2332
tp2333
Rp2334
aaa(lp2335
(g679
I113
tp2336
a(lp2337
g6
(g10
S'\xac-\xb5\xe2\xbc\xd6\xd1?'
p2338
tp2339
Rp2340
ag6
(g10
S'\x1f\xfa\xe3yB\x93\xe1?'
p2341
tp2342
Rp2343
aF0.6866838815725111
ag6
(g21
S'\x00\x00\x00\x00'
p2344
tp2345
Rp2346
ag6
(g21
S'\xae\xeb\xb9@'
p2347
tp2348
Rp2349
aaa(lp2350
(g679
I114
tp2351
a(lp2352
g6
(g10
S'\xd0\r\xfea\xc1\x1b\xe5?'
p2353
tp2354
Rp2355
ag6
(g10
S'\x81"\x14\x11#\x18\xfe?'
p2356
tp2357
Rp2358
aF1.2024019213037767
ag6
(g21
S'\x00\x00\x00\x00'
p2359
tp2360
Rp2361
ag6
(g21
S'W\xde\tA'
p2362
tp2363
Rp2364
aaa(lp2365
(g679
I115
tp2366
a(lp2367
g6
(g10
S'3\xa8\xc6\xa3\x1c\x01\xaf?'
p2368
tp2369
Rp2370
ag6
(g10
S'\xc3iZ\xd7\xceM\xae?'
p2371
tp2372
Rp2373
aF0.23562772832209414
ag6
(g21
S'\x00\x00\x00\x00'
p2374
tp2375
Rp2376
ag6
(g21
S'}\x18T@'
p2377
tp2378
Rp2379
aaa(lp2380
(g679
I116
tp2381
a(lp2382
g6
(g10
S'\x91\x94@\xd8~\x19\xcc?'
p2383
tp2384
Rp2385
ag6
(g10
S'\xb3S\xa6\xb8\x82.\xd4?'
p2386
tp2387
Rp2388
aF0.5168618908507747
ag6
(g21
S'\x00\x00\x00\x00'
p2389
tp2390
Rp2391
ag6
(g21
S'("`@'
p2392
tp2393
Rp2394
aaa(lp2395
(g679
I117
tp2396
a(lp2397
g6
(g10
S'\xf7\xde\xbb \x94oo?'
p2398
tp2399
Rp2400
ag6
(g10
S'\xfdRE\xf7\xb0Mr?'
p2401
tp2402
Rp2403
aF0.06673752993445302
ag6
(g21
S'\x00\x00\x00\x00'
p2404
tp2405
Rp2406
ag6
(g21
S'\xae).@'
p2407
tp2408
Rp2409
aaa(lp2410
(g679
I118
tp2411
a(lp2412
g6
(g10
S'\x87{\xa8,\x8c\xa4\x92?'
p2413
tp2414
Rp2415
ag6
(g10
S'\xf1\xe8]\xfb\xa7#\x95?'
p2416
tp2417
Rp2418
aF0.1425215001255507
ag6
(g21
S'\x00\x00\x00\x00'
p2419
tp2420
Rp2421
ag6
(g21
S'AEE@'
p2422
tp2423
Rp2424
aaa(lp2425
(g679
I119
tp2426
a(lp2427
g6
(g10
S'-Q$b!P\x7f?'
p2428
tp2429
Rp2430
ag6
(g10
S'^~\xfaG\t6~?'
p2431
tp2432
Rp2433
aF0.08554127139749762
ag6
(g21
S'\x00\x00\x00\x00'
p2434
tp2435
Rp2436
ag6
(g21
S'\xe494@'
p2437
tp2438
Rp2439
aaa(lp2440
(Vdense_2
p2441
I0
tp2442
a(lp2443
g6
(g10
S'x\x91\x9d\x98\xd2\xda\x02@'
p2444
tp2445
Rp2446
ag6
(g10
S'\x06*\x95\xa8\xe6\xe0)@'
p2447
tp2448
Rp2449
aF2.7174495464476074
ag6
(g21
S'\x00\x00\x00\x00'
p2450
tp2451
Rp2452
ag6
(g21
S'\x15\xde_A'
p2453
tp2454
Rp2455
aaa(lp2456
(g2441
I1
tp2457
a(lp2458
g6
(g10
S'\xf3\xda\xc3\x94Y9\xd1?'
p2459
tp2460
Rp2461
ag6
(g10
S'\xd1\xbc\xddN(9\xe7?'
p2462
tp2463
Rp2464
aF0.8082689947560867
ag6
(g21
S'\x00\x00\x00\x00'
p2465
tp2466
Rp2467
ag6
(g21
S'r\xea\xe6@'
p2468
tp2469
Rp2470
aaa(lp2471
(g2441
I2
tp2472
a(lp2473
g6
(g10
S'\x80r\xb9rF\xa6\xf2?'
p2474
tp2475
Rp2476
ag6
(g10
S'\xe0\xc7^Q\xe1\xc9\x11@'
p2477
tp2478
Rp2479
aF1.7574236761276338
ag6
(g21
S'\x00\x00\x00\x00'
p2480
tp2481
Rp2482
ag6
(g21
S'j\xf9=A'
p2483
tp2484
Rp2485
aaa(lp2486
(g2441
I3
tp2487
a(lp2488
g6
(g10
S'4\xd6\xc5\x19\xe7\x9e\xf7?'
p2489
tp2490
Rp2491
ag6
(g10
S'{x\xc4\n\x87\x90%@'
p2492
tp2493
Rp2494
aF2.9330588986968205
ag6
(g21
S'\x00\x00\x00\x00'
p2495
tp2496
Rp2497
ag6
(g21
S'sc~A'
p2498
tp2499
Rp2500
aaa(lp2501
(g2441
I4
tp2502
a(lp2503
g6
(g10
S'J`\xecE\t7\x00@'
p2504
tp2505
Rp2506
ag6
(g10
S"kY\x17g\xe6:'@"
p2507
tp2508
Rp2509
aF2.739858444001269
ag6
(g21
S'\x00\x00\x00\x00'
p2510
tp2511
Rp2512
ag6
(g21
S'o\xab\x8eA'
p2513
tp2514
Rp2515
aaa(lp2516
(g2441
I5
tp2517
a(lp2518
g6
(g10
S'\xc1\x02FwS\x92\xf7?'
p2519
tp2520
Rp2521
ag6
(g10
S'\xc1\x81Fp\xbf\x84#@'
p2522
tp2523
Rp2524
aF2.754792863646716
ag6
(g21
S'\x00\x00\x00\x00'
p2525
tp2526
Rp2527
ag6
(g21
S'I\xdbyA'
p2528
tp2529
Rp2530
aaa(lp2531
(g2441
I6
tp2532
a(lp2533
g6
(g10
S'\xa3\x0b\xee\xc8\x9fC\xe5?'
p2534
tp2535
Rp2536
ag6
(g10
S'\x14+*L\x8a\x10\x02@'
p2537
tp2538
Rp2539
aF1.3477794761729696
ag6
(g21
S'\x00\x00\x00\x00'
p2540
tp2541
Rp2542
ag6
(g21
S'O\x16\x01A'
p2543
tp2544
Rp2545
aaa(lp2546
(g2441
I7
tp2547
a(lp2548
g6
(g10
S'c\xff\x16E\xa5\x08\x08@'
p2549
tp2550
Rp2551
ag6
(g10
S'D\x1a\xb8\x00d\xb82@'
p2552
tp2553
Rp2554
aF3.113668132155024
ag6
(g21
S'\x00\x00\x00\x00'
p2555
tp2556
Rp2557
ag6
(g21
S'\x05ZkA'
p2558
tp2559
Rp2560
aaa(lp2561
(g2441
I8
tp2562
a(lp2563
g6
(g10
S'\xf5{\xc1C7\xc9\x03@'
p2564
tp2565
Rp2566
ag6
(g10
S'\xcc\x8eHw\xd0i/@'
p2567
tp2568
Rp2569
aF3.096724612726262
ag6
(g21
S'\x00\x00\x00\x00'
p2570
tp2571
Rp2572
ag6
(g21
S'\xa0\x9d\x95A'
p2573
tp2574
Rp2575
aaa(lp2576
(g2441
I9
tp2577
a(lp2578
g6
(g10
S'\x00\x00\x00\x00\x00\x00\x00\x00'
p2579
tp2580
Rp2581
ag6
(g10
S'\x00\x00\x00\x00\x00\x00\x00\x00'
p2582
tp2583
Rp2584
aF0.0
ag6
(g21
S'\x00\x00\x00\x00'
p2585
tp2586
Rp2587
ag2587
aaa(lp2588
(g2441
I10
tp2589
a(lp2590
g6
(g10
S'\xba\x0f\x04\x92$8\xf9?'
p2591
tp2592
Rp2593
ag6
(g10
S'\xe4O\x84\x84T\x05 @'
p2594
tp2595
Rp2596
aF2.3507408876431173
ag6
(g21
S'\x00\x00\x00\x00'
p2597
tp2598
Rp2599
ag6
(g21
S'+\x8a=A'
p2600
tp2601
Rp2602
aaa(lp2603
(g2441
I11
tp2604
a(lp2605
g6
(g10
S'\x92#~\xc2\xa2\\\xf1?'
p2606
tp2607
Rp2608
ag6
(g10
S'+\xed\x1b}\xc5\xc1\x10@'
p2609
tp2610
Rp2611
aF1.7354402459720197
ag6
(g21
S'\x00\x00\x00\x00'
p2612
tp2613
Rp2614
ag6
(g21
S'Q\x84,A'
p2615
tp2616
Rp2617
aaa(lp2618
(g2441
I12
tp2619
a(lp2620
g6
(g10
S'm\x92\x95\xe6\xb6\xe9\xe5?'
p2621
tp2622
Rp2623
ag6
(g10
S'\x1a\x1b[\xeeY\x12\x05@'
p2624
tp2625
Rp2626
aF1.4714066386963953
ag6
(g21
S'\x00\x00\x00\x00'
p2627
tp2628
Rp2629
ag6
(g21
S'\xdd\xfd/A'
p2630
tp2631
Rp2632
aaa(lp2633
(g2441
I13
tp2634
a(lp2635
g6
(g10
S'>T\x07\xbd!\xc1\xe3?'
p2636
tp2637
Rp2638
ag6
(g10
S'\x08\xc4E\xb8\xe5c\x01@'
p2639
tp2640
Rp2641
aF1.3389126302562007
ag6
(g21
S'\x00\x00\x00\x00'
p2642
tp2643
Rp2644
ag6
(g21
S'v\x0f$A'
p2645
tp2646
Rp2647
aaa(lp2648
(g2441
I14
tp2649
a(lp2650
g6
(g10
S'\xffA\xf4w\xde\x17\xe3?'
p2651
tp2652
Rp2653
ag6
(g10
S'$\x9a\xc2\x0f\x8c3\x03@'
p2654
tp2655
Rp2656
aF1.4297419070974793
ag6
(g21
S'\x00\x00\x00\x00'
p2657
tp2658
Rp2659
ag6
(g21
S'\xdf\xedMA'
p2660
tp2661
Rp2662
aaa(lp2663
(g2441
I15
tp2664
a(lp2665
g6
(g10
S'\xc9&\x8c\xda\xf2\xa0\xeb?'
p2666
tp2667
Rp2668
ag6
(g10
S'\x0b\xe2\xc3b\x9d*\x07@'
p2669
tp2670
Rp2671
aF1.466408378748244
ag6
(g21
S'\x00\x00\x00\x00'
p2672
tp2673
Rp2674
ag6
(g21
S'Y\xf8\x14A'
p2675
tp2676
Rp2677
aaa(lp2678
(g2441
I16
tp2679
a(lp2680
g6
(g10
S'\xa6\x93\xeb\xc50n\xf0?'
p2681
tp2682
Rp2683
ag6
(g10
S'\xe0\xc4F-\xab\xcf\t@'
p2684
tp2685
Rp2686
aF1.473727597349158
ag6
(g21
S'\x00\x00\x00\x00'
p2687
tp2688
Rp2689
ag6
(g21
S'\x92\x1c\x14A'
p2690
tp2691
Rp2692
aaa(lp2693
(g2441
I17
tp2694
a(lp2695
g6
(g10
S'\xec\x81\x18\xe4\xccg\xf8?'
p2696
tp2697
Rp2698
ag6
(g10
S'\x92\xcb\xf7\x8f[{\x19@'
p2699
tp2700
Rp2701
aF2.010919841315996
ag6
(g21
S'\x00\x00\x00\x00'
p2702
tp2703
Rp2704
ag6
(g21
S'\xd3\xc8(A'
p2705
tp2706
Rp2707
aaa(lp2708
(g2441
I18
tp2709
a(lp2710
g6
(g10
S'\x05\x88\xf4I\x90B\xe9?'
p2711
tp2712
Rp2713
ag6
(g10
S'\xbd\x9a\n^M#\x06@'
p2714
tp2715
Rp2716
aF1.4642826982382997
ag6
(g21
S'\x00\x00\x00\x00'
p2717
tp2718
Rp2719
ag6
(g21
S'\xe4\xb22A'
p2720
tp2721
Rp2722
aaa(lp2723
(g2441
I19
tp2724
a(lp2725
g6
(g10
S'j\xbctk"U\xed?'
p2726
tp2727
Rp2728
ag6
(g10
S'\xc7\x0f\xab\x99\x01\xb1\x1a@'
p2729
tp2730
Rp2731
aF2.4150826895561086
ag6
(g21
S'\x00\x00\x00\x00'
p2732
tp2733
Rp2734
ag6
(g21
S'\x06\xc3SA'
p2735
tp2736
Rp2737
aaa(lp2738
(g2441
I20
tp2739
a(lp2740
g6
(g10
S'\xba4\xaf)\xba\xf6\xf5?'
p2741
tp2742
Rp2743
ag6
(g10
S'\xd5\xd2k\xefd\x07\x1a@'
p2744
tp2745
Rp2746
aF2.1500736000241547
ag6
(g21
S'\x00\x00\x00\x00'
p2747
tp2748
Rp2749
ag6
(g21
S'\xea\x82QA'
p2750
tp2751
Rp2752
aaa(lp2753
(g2441
I21
tp2754
a(lp2755
g6
(g10
S'\xbc\xaa\xaav\xa2\x0f\xba?'
p2756
tp2757
Rp2758
ag6
(g10
S'\x96@o&rg\xc7?'
p2759
tp2760
Rp2761
aF0.41530827271222914
ag6
(g21
S'\x00\x00\x00\x00'
p2762
tp2763
Rp2764
ag6
(g21
S'\x8b\xf3\xad@'
p2765
tp2766
Rp2767
aaa(lp2768
(g2441
I22
tp2769
a(lp2770
g6
(g10
S'\xf4\xc7\xfd"FH\xf3?'
p2771
tp2772
Rp2773
ag6
(g10
S'!\x9a*H4\x0b\x1a@'
p2774
tp2775
Rp2776
aF2.2491258581579974
ag6
(g21
S'\x00\x00\x00\x00'
p2777
tp2778
Rp2779
ag6
(g21
S'\xfa\xe67A'
p2780
tp2781
Rp2782
aaa(lp2783
(g2441
I23
tp2784
a(lp2785
g6
(g10
S',\xdf\x94L&K\x00@'
p2786
tp2787
Rp2788
ag6
(g10
S'a\x16\x16\xdf\x98\x9f&@'
p2789
tp2790
Rp2791
aF2.676488400308437
ag6
(g21
S'\x00\x00\x00\x00'
p2792
tp2793
Rp2794
ag6
(g21
S'\x92=\x81A'
p2795
tp2796
Rp2797
aaa(lp2798
(g2441
I24
tp2799
a(lp2800
g6
(g10
S'\x14\xe4\xe8\xab#\xfa\x02@'
p2801
tp2802
Rp2803
ag6
(g10
S'\x06\x92=r\xbe;*@'
p2804
tp2805
Rp2806
aF2.736721946150331
ag6
(g21
S'\x00\x00\x00\x00'
p2807
tp2808
Rp2809
ag6
(g21
S'-\xc7QA'
p2810
tp2811
Rp2812
aaa(lp2813
(g2441
I25
tp2814
a(lp2815
g6
(g10
S')\x17m,\xbb\xd2\xec?'
p2816
tp2817
Rp2818
ag6
(g10
S'\x82SIr\xc5!\x11@'
p2819
tp2820
Rp2821
aF1.8632434103462356
ag6
(g21
S'\x00\x00\x00\x00'
p2822
tp2823
Rp2824
ag6
(g21
S'\xee\x03dA'
p2825
tp2826
Rp2827
aaa(lp2828
(g2441
I26
tp2829
a(lp2830
g6
(g10
S'5F*a?k\xe4?'
p2831
tp2832
Rp2833
ag6
(g10
S'\xdd\x9e\xaf\xd6\xe4\x95\x00@'
p2834
tp2835
Rp2836
aF1.290747576418049
ag6
(g21
S'\x00\x00\x00\x00'
p2837
tp2838
Rp2839
ag6
(g21
S'\xf6\xee\x11A'
p2840
tp2841
Rp2842
aaa(lp2843
(g2441
I27
tp2844
a(lp2845
g6
(g10
S'\xd1\xdc\x7fLc\xd6\xf3?'
p2846
tp2847
Rp2848
ag6
(g10
S'!\x84\xc3"\xbd)\x13@'
p2849
tp2850
Rp2851
aF1.8037614497435377
ag6
(g21
S'\x00\x00\x00\x00'
p2852
tp2853
Rp2854
ag6
(g21
S'\xa3\xbc\x1eA'
p2855
tp2856
Rp2857
aaa(lp2858
(g2441
I28
tp2859
a(lp2860
g6
(g10
S'\xa8-+\x10\xd7\x04\xf6?'
p2861
tp2862
Rp2863
ag6
(g10
S'ns\x81\x89;\xc7\x1b@'
p2864
tp2865
Rp2866
aF2.2473733745977276
ag6
(g21
S'\x00\x00\x00\x00'
p2867
tp2868
Rp2869
ag6
(g21
S'\x90\xfd>A'
p2870
tp2871
Rp2872
aaa(lp2873
(g2441
I29
tp2874
a(lp2875
g6
(g10
S'G\xd1\x11N\x8c?\xe0?'
p2876
tp2877
Rp2878
ag6
(g10
S't\x0c\x8d\xa3Q[\xf6?'
p2879
tp2880
Rp2881
aF1.0674629479562119
ag6
(g21
S'\x00\x00\x00\x00'
p2882
tp2883
Rp2884
ag6
(g21
S'6o\xe5@'
p2885
tp2886
Rp2887
aaa(lp2888
(g2441
I30
tp2889
a(lp2890
g6
(g10
S'\xb7\x17\xdc\xdb\xa8\x14\xe1?'
p2891
tp2892
Rp2893
ag6
(g10
S'\x1c\x9cY\x13\xafw\xfa?'
p2894
tp2895
Rp2896
aF1.1701740179020623
ag6
(g21
S'\x00\x00\x00\x00'
p2897
tp2898
Rp2899
ag6
(g21
S'\xbdv\x10A'
p2900
tp2901
Rp2902
aaa(lp2903
(g2441
I31
tp2904
a(lp2905
g6
(g10
S':/\x82\x07\xc3\x01\xea?'
p2906
tp2907
Rp2908
ag6
(g10
S'\xc7\x18\xb2\x0f&\x14\x0c@'
p2909
tp2910
Rp2911
aF1.687996575878302
ag6
(g21
S'\x00\x00\x00\x00'
p2912
tp2913
Rp2914
ag6
(g21
S'\x11+\x1eA'
p2915
tp2916
Rp2917
aaa(lp2918
(g2441
I32
tp2919
a(lp2920
g6
(g10
S'ZD\t:\x1d\xea\xf9?'
p2921
tp2922
Rp2923
ag6
(g10
S'\xae\x7f\xfc\xa7C\x0c\x1a@'
p2924
tp2925
Rp2926
aF1.971975850796653
ag6
(g21
S'\x00\x00\x00\x00'
p2927
tp2928
Rp2929
ag6
(g21
S'\xe3\x18GA'
p2930
tp2931
Rp2932
aaa(lp2933
(g2441
I33
tp2934
a(lp2935
g6
(g10
S'\x86\xb5_L\xe6(\xe7?'
p2936
tp2937
Rp2938
ag6
(g10
S'`\x80\xa2$\x1a#\x04@'
p2939
tp2940
Rp2941
aF1.4118556290174191
ag6
(g21
S'\x00\x00\x00\x00'
p2942
tp2943
Rp2944
ag6
(g21
S'\xc2+\x14A'
p2945
tp2946
Rp2947
aaa(lp2948
(g2441
I34
tp2949
a(lp2950
g6
(g10
S'\xd1\x8f1`z\xd0\xdc?'
p2951
tp2952
Rp2953
ag6
(g10
S'\x1a\xa6Q\x01\xd6\x13\x00@'
p2954
tp2955
Rp2956
aF1.3442408398610668
ag6
(g21
S'\x00\x00\x00\x00'
p2957
tp2958
Rp2959
ag6
(g21
S'\x1e&GA'
p2960
tp2961
Rp2962
aaa(lp2963
(g2441
I35
tp2964
a(lp2965
g6
(g10
S'}\xf0\xc5V\x85=\xf6?'
p2966
tp2967
Rp2968
ag6
(g10
S'QL\x7f\x041\x94\x17@'
p2969
tp2970
Rp2971
aF1.9906188383041987
ag6
(g21
S'\x00\x00\x00\x00'
p2972
tp2973
Rp2974
ag6
(g21
S'\x9a\xad+A'
p2975
tp2976
Rp2977
aaa(lp2978
(g2441
I36
tp2979
a(lp2980
g6
(g10
S'\xc8\xe2\xf14+\xd3\xff?'
p2981
tp2982
Rp2983
ag6
(g10
S"\x91n1\x8fr7'@"
p2984
tp2985
Rp2986
aF2.7662170177565075
ag6
(g21
S'\x00\x00\x00\x00'
p2987
tp2988
Rp2989
ag6
(g21
S'7\xbadA'
p2990
tp2991
Rp2992
aaa(lp2993
(g2441
I37
tp2994
a(lp2995
g6
(g10
S'*\x8bGT\x90+\xc8?'
p2996
tp2997
Rp2998
ag6
(g10
S'$\x9e\x1f\xca\x93\xd6\xd5?'
p2999
tp3000
Rp3001
aF0.5527795164236672
ag6
(g21
S'\x00\x00\x00\x00'
p3002
tp3003
Rp3004
ag6
(g21
S'!\xe5\xcd@'
p3005
tp3006
Rp3007
aaa(lp3008
(g2441
I38
tp3009
a(lp3010
g6
(g10
S'o\xef]|>+\xc0?'
p3011
tp3012
Rp3013
ag6
(g10
S'\xce\xce}\xbel`\xd4?'
p3014
tp3015
Rp3016
aF0.5499351178164997
ag6
(g21
S'\x00\x00\x00\x00'
p3017
tp3018
Rp3019
ag6
(g21
S'\xbe\xa5\x08A'
p3020
tp3021
Rp3022
aaa(lp3023
(g2441
I39
tp3024
a(lp3025
g6
(g10
S'9q\xf6\xa3\xe7W\xc6?'
p3026
tp3027
Rp3028
ag6
(g10
S'{\x9dR\xe8\xb6m\xe0?'
p3029
tp3030
Rp3031
aF0.6949262625865508
ag6
(g21
S'\x00\x00\x00\x00'
p3032
tp3033
Rp3034
ag6
(g21
S'\xfdu\xf9@'
p3035
tp3036
Rp3037
aaa(lp3038
(g2441
I40
tp3039
a(lp3040
g6
(g10
S'\x02\x9a\x08\xd1\xf9\xc4\xdb?'
p3041
tp3042
Rp3043
ag6
(g10
S'=a!\x95\xc1\xf6\xf4?'
p3044
tp3045
Rp3046
aF1.0592337843950133
ag6
(g21
S'\x00\x00\x00\x00'
p3047
tp3048
Rp3049
ag6
(g21
S'\x17\xce/A'
p3050
tp3051
Rp3052
aaa(lp3053
(g2441
I41
tp3054
a(lp3055
g6
(g10
S'J\xe1\xba\xae\xec\xc5\xf0?'
p3056
tp3057
Rp3058
ag6
(g10
S't\xcf\\\xab\xbc[\x17@'
p3059
tp3060
Rp3061
aF2.1772939861153975
ag6
(g21
S'\x00\x00\x00\x00'
p3062
tp3063
Rp3064
ag6
(g21
S'\xf5+DA'
p3065
tp3066
Rp3067
aaa(lp3068
(g2441
I42
tp3069
a(lp3070
g6
(g10
S'\xc4\x98V\xa3\x8a[\xf2?'
p3071
tp3072
Rp3073
ag6
(g10
S'K{5\xb8\xc4i\x10@'
p3074
tp3075
Rp3076
aF1.6693950197018603
ag6
(g21
S'\x00\x00\x00\x00'
p3077
tp3078
Rp3079
ag6
(g21
S's\x906A'
p3080
tp3081
Rp3082
aaa(lp3083
(g2441
I43
tp3084
a(lp3085
g6
(g10
S'\x00\x00\x00\x00\x00\x00\x00\x00'
p3086
tp3087
Rp3088
ag6
(g10
S'\x00\x00\x00\x00\x00\x00\x00\x00'
p3089
tp3090
Rp3091
aF0.0
ag6
(g21
S'\x00\x00\x00\x00'
p3092
tp3093
Rp3094
ag3094
aaa(lp3095
(g2441
I44
tp3096
a(lp3097
g6
(g10
S'{\x10}\x9e\xc5$\xbd?'
p3098
tp3099
Rp3100
ag6
(g10
S'tkh\xfch\xe3\xcc?'
p3101
tp3102
Rp3103
aF0.4612265451227091
ag6
(g21
S'\x00\x00\x00\x00'
p3104
tp3105
Rp3106
ag6
(g21
S'\xbb!\xc8@'
p3107
tp3108
Rp3109
aaa(lp3110
(g2441
I45
tp3111
a(lp3112
g6
(g10
S'S\x91\xed \x17\x07\xf2?'
p3113
tp3114
Rp3115
ag6
(g10
S'\xb5\xb9:\x9c\xb4\xa5\x17@'
p3116
tp3117
Rp3118
aF2.1545994862186006
ag6
(g21
S'\x00\x00\x00\x00'
p3119
tp3120
Rp3121
ag6
(g21
S'W\x81@A'
p3122
tp3123
Rp3124
aaa(lp3125
(g2441
I46
tp3126
a(lp3127
g6
(g10
S'f\x16\xb4\xb7\xb0\xa3\xbc?'
p3128
tp3129
Rp3130
ag6
(g10
S'\xcf\xccE2Q3\xca?'
p3131
tp3132
Rp3133
aF0.4383783426504377
ag6
(g21
S'\x00\x00\x00\x00'
p3134
tp3135
Rp3136
ag6
(g21
S'R\xf0\xb2@'
p3137
tp3138
Rp3139
aaa(lp3140
(g2441
I47
tp3141
a(lp3142
g6
(g10
S'\xbbH\xb4\xa3m\xeb\xef?'
p3143
tp3144
Rp3145
ag6
(g10
S'\xc9\xcb\x19o\xc2~\x0f@'
p3146
tp3147
Rp3148
aF1.7151998068946321
ag6
(g21
S'\x00\x00\x00\x00'
p3149
tp3150
Rp3151
ag6
(g21
S'\xf5\xeeXA'
p3152
tp3153
Rp3154
aaa(lp3155
(g2441
I48
tp3156
a(lp3157
g6
(g10
S'<\xf2\x89(\xb8D\xfa?'
p3158
tp3159
Rp3160
ag6
(g10
S'}\x9e\xb0+8\xab!@'
p3161
tp3162
Rp3163
aF2.4776966285011963
ag6
(g21
S'\x00\x00\x00\x00'
p3164
tp3165
Rp3166
ag6
(g21
S';\t=A'
p3167
tp3168
Rp3169
aaa(lp3170
(g2441
I49
tp3171
a(lp3172
g6
(g10
S'\x0bvX\x9e]}\xeb?'
p3173
tp3174
Rp3175
ag6
(g10
S'5\x85\x08\x92-}\x06@'
p3176
tp3177
Rp3178
aF1.4398434913619456
ag6
(g21
S'\x00\x00\x00\x00'
p3179
tp3180
Rp3181
ag6
(g21
S'.{\xff@'
p3182
tp3183
Rp3184
aaa(lp3185
(g2441
I50
tp3186
a(lp3187
g6
(g10
S'k0j5\xde\x89\xec?'
p3188
tp3189
Rp3190
ag6
(g10
S'\x92\x84\xb5mF0\x14@'
p3191
tp3192
Rp3193
aF2.0619853650610267
ag6
(g21
S'\x00\x00\x00\x00'
p3194
tp3195
Rp3196
ag6
(g21
S'\x16\x0bFA'
p3197
tp3198
Rp3199
aaa(lp3200
(g2441
I51
tp3201
a(lp3202
g6
(g10
S'a\xb8\xa6\xa7\xcb@\xf1?'
p3203
tp3204
Rp3205
ag6
(g10
S'6\x8d\xaa]\x83\xab\x0f@'
p3206
tp3207
Rp3208
aF1.6721167163590311
ag6
(g21
S'\x00\x00\x00\x00'
p3209
tp3210
Rp3211
ag6
(g21
S'B\x01TA'
p3212
tp3213
Rp3214
aaa(lp3215
(g2441
I52
tp3216
a(lp3217
g6
(g10
S'eE\xafH\xdd\xbd\xf6?'
p3218
tp3219
Rp3220
ag6
(g10
S'\xc4\x0e\xfe\xa5\xa3\xaf\x1e@'
p3221
tp3222
Rp3223
aF2.3772413885337054
ag6
(g21
S'\x00\x00\x00\x00'
p3224
tp3225
Rp3226
ag6
(g21
S'EtfA'
p3227
tp3228
Rp3229
aaa(lp3230
(g2441
I53
tp3231
a(lp3232
g6
(g10
S'\xee%\xdew\x8f\xcb\xf7?'
p3233
tp3234
Rp3235
ag6
(g10
S'\x9c\xc2\xa2\x07kj%@'
p3236
tp3237
Rp3238
aF2.9148056211145468
ag6
(g21
S'\x00\x00\x00\x00'
p3239
tp3240
Rp3241
ag6
(g21
S'6F\x98A'
p3242
tp3243
Rp3244
aaa(lp3245
(g2441
I54
tp3246
a(lp3247
g6
(g10
S'DxU&\xa0_\xcc?'
p3248
tp3249
Rp3250
ag6
(g10
S'v&\x94\xf5\xae>\xe0?'
p3251
tp3252
Rp3253
aF0.6771373334981788
ag6
(g21
S'\x00\x00\x00\x00'
p3254
tp3255
Rp3256
ag6
(g21
S'\xa8S\xd7@'
p3257
tp3258
Rp3259
aaa(lp3260
(g2441
I55
tp3261
a(lp3262
g6
(g10
S'\xc5B\x8d}\x8c\x9f\xda?'
p3263
tp3264
Rp3265
ag6
(g10
S'Y<\xacsc\xde\xf3?'
p3266
tp3267
Rp3268
aF1.0338026776173974
ag6
(g21
S'\x00\x00\x00\x00'
p3269
tp3270
Rp3271
ag6
(g21
S'l\xf6\xf6@'
p3272
tp3273
Rp3274
aaa(lp3275
(g2441
I56
tp3276
a(lp3277
g6
(g10
S'$\x9f\x06\x84\xc5o\xfa?'
p3278
tp3279
Rp3280
ag6
(g10
S'\x12g\xa6\xc4\xa7\xb8(@'
p3281
tp3282
Rp3283
aF3.103320708051113
ag6
(g21
S'\x00\x00\x00\x00'
p3284
tp3285
Rp3286
ag6
(g21
S'L\xf8_A'
p3287
tp3288
Rp3289
aaa(lp3290
(g2441
I57
tp3291
a(lp3292
g6
(g10
S'{t\xfcr\xcc\xce\xf6?'
p3293
tp3294
Rp3295
ag6
(g10
S'\x11V\xf3\xf9\xa3\x0c @'
p3296
tp3297
Rp3298
aF2.4479935976879204
ag6
(g21
S'\x00\x00\x00\x00'
p3299
tp3300
Rp3301
ag6
(g21
S'\xa9\xfb,A'
p3302
tp3303
Rp3304
aaa(lp3305
(g2441
I58
tp3306
a(lp3307
g6
(g10
S'\xdb\xb5T\xb7\x10Z\xec?'
p3308
tp3309
Rp3310
ag6
(g10
S'\xe5`\xd3\x05u\xe7\x05@'
p3311
tp3312
Rp3313
aF1.3975085953526247
ag6
(g21
S'\x00\x00\x00\x00'
p3314
tp3315
Rp3316
ag6
(g21
S'3\xb9\x17A'
p3317
tp3318
Rp3319
aaa(lp3320
(g2441
I59
tp3321
a(lp3322
g6
(g10
S'k\x96\xa1K\xf2\xd0\xf1?'
p3323
tp3324
Rp3325
ag6
(g10
S'\x9cCE\x83\xb7\xd8\r@'
p3326
tp3327
Rp3328
aF1.5782614117986509
ag6
(g21
S'\x00\x00\x00\x00'
p3329
tp3330
Rp3331
ag6
(g21
S'\xdb\xf5\x11A'
p3332
tp3333
Rp3334
aaa(lp3335
(g2441
I60
tp3336
a(lp3337
g6
(g10
S'<\xf7\xbf\xa7e\x99\xde?'
p3338
tp3339
Rp3340
ag6
(g10
S'\xa3{\xa7\xf0\xd6@\x01@'
p3341
tp3342
Rp3343
aF1.3885489881905788
ag6
(g21
S'\x00\x00\x00\x00'
p3344
tp3345
Rp3346
ag6
(g21
S';%$A'
p3347
tp3348
Rp3349
aaa(lp3350
(g2441
I61
tp3351
a(lp3352
g6
(g10
S'\xa6N@\xff\x9a*\xdf?'
p3353
tp3354
Rp3355
ag6
(g10
S'\x8b\xfa\xf4?\xc0\x8a\xf1?'
p3356
tp3357
Rp3358
aF0.9269464277010727
ag6
(g21
S'\x00\x00\x00\x00'
p3359
tp3360
Rp3361
ag6
(g21
S'\xf8\x8d\xcb@'
p3362
tp3363
Rp3364
aaa(lp3365
(g2441
I62
tp3366
a(lp3367
g6
(g10
S'\xc5\xe7\xaa\xff\xea6\xef?'
p3368
tp3369
Rp3370
ag6
(g10
S'\x1f\xdf\x15\x0e\xa3\x8b\x11@'
p3371
tp3372
Rp3373
aF1.8533359041831698
ag6
(g21
S'\x00\x00\x00\x00'
p3374
tp3375
Rp3376
ag6
(g21
S'\xaa#VA'
p3377
tp3378
Rp3379
aaa(lp3380
(g2441
I63
tp3381
a(lp3382
g6
(g10
S'Kt4\xe2\x91\xd5\xf8?'
p3383
tp3384
Rp3385
ag6
(g10
S'\xfe\x7fT\xca\xb0u\x11@'
p3386
tp3387
Rp3388
aF1.3984957226809822
ag6
(g21
S'\x00\x00\x00\x00'
p3389
tp3390
Rp3391
ag6
(g21
S'\xde>\x17A'
p3392
tp3393
Rp3394
aaa(lp3395
(g2441
I64
tp3396
a(lp3397
g6
(g10
S'\x8d\x9c=H\xf8u\xf4?'
p3398
tp3399
Rp3400
ag6
(g10
S'\xbb\x87\x9ag\xdaf\x18@'
p3401
tp3402
Rp3403
aF2.1130806724037887
ag6
(g21
S'\x00\x00\x00\x00'
p3404
tp3405
Rp3406
ag6
(g21
S's\xdf7A'
p3407
tp3408
Rp3409
aaa(lp3410
(g2441
I65
tp3411
a(lp3412
g6
(g10
S'V\xbd\xf7U\x05n\xe7?'
p3413
tp3414
Rp3415
ag6
(g10
S'-\xba\xa0\x82*T\x0b@'
p3416
tp3417
Rp3418
aF1.6970588517773761
ag6
(g21
S'\x00\x00\x00\x00'
p3419
tp3420
Rp3421
ag6
(g21
S'!\xdf@A'
p3422
tp3423
Rp3424
aaa(lp3425
(g2441
I66
tp3426
a(lp3427
g6
(g10
S'\xca\xfb\x04/6\x99\xbf?'
p3428
tp3429
Rp3430
ag6
(g10
S'o6\x8b\xfa\\(\xce?'
p3431
tp3432
Rp3433
aF0.4694373584492934
ag6
(g21
S'\x00\x00\x00\x00'
p3434
tp3435
Rp3436
ag6
(g21
S'\xcf\x9c\x01A'
p3437
tp3438
Rp3439
aaa(lp3440
(g2441
I67
tp3441
a(lp3442
g6
(g10
S'1\xf8\xc2\x84Si\xe7?'
p3443
tp3444
Rp3445
ag6
(g10
S';E,\xeeG \x02@'
p3446
tp3447
Rp3448
aF1.3154896769226798
ag6
(g21
S'\x00\x00\x00\x00'
p3449
tp3450
Rp3451
ag6
(g21
S'\xeav\x15A'
p3452
tp3453
Rp3454
aaa(lp3455
(g2441
I68
tp3456
a(lp3457
g6
(g10
S'\xbd\xe9\xd0\xbe\xd0\xfa\xfc?'
p3458
tp3459
Rp3460
ag6
(g10
S'\xaa\xf6"\\\x9d\xd8$@'
p3461
tp3462
Rp3463
aF2.6725467479541436
ag6
(g21
S'\x00\x00\x00\x00'
p3464
tp3465
Rp3466
ag6
(g21
S'\xf5@\x88A'
p3467
tp3468
Rp3469
aaa(lp3470
(g2441
I69
tp3471
a(lp3472
g6
(g10
S'jz\x94\x81!\xd0\xd3?'
p3473
tp3474
Rp3475
ag6
(g10
S'i\x08\xb7R\x14\x0c\xf1?'
p3476
tp3477
Rp3478
aF0.9846879427906853
ag6
(g21
S'\x00\x00\x00\x00'
p3479
tp3480
Rp3481
ag6
(g21
S"\xf4\xa5'A"
p3482
tp3483
Rp3484
aaa(lp3485
(g2441
I70
tp3486
a(lp3487
g6
(g10
S'\xd4\x9a\x0e\xd8`\xd3\xed?'
p3488
tp3489
Rp3490
ag6
(g10
S'\xd7h[,\xf9\x91\x07@'
p3491
tp3492
Rp3493
aF1.4413719919768342
ag6
(g21
S'\x00\x00\x00\x00'
p3494
tp3495
Rp3496
ag6
(g21
S'=a3A'
p3497
tp3498
Rp3499
aaa(lp3500
(g2441
I71
tp3501
a(lp3502
g6
(g10
S'\xe5\xc1\xfc\xe8v\xb8\xdd?'
p3503
tp3504
Rp3505
ag6
(g10
S'\xde\xfb\x1d\xca\xeb\x18\xf0?'
p3506
tp3507
Rp3508
aF0.8890623768559569
ag6
(g21
S'\x00\x00\x00\x00'
p3509
tp3510
Rp3511
ag6
(g21
S'\x0b8\xd5@'
p3512
tp3513
Rp3514
aaa(lp3515
(g2441
I72
tp3516
a(lp3517
g6
(g10
S'\xfb\x91\x81\xfd\xbb\x97\xce?'
p3518
tp3519
Rp3520
ag6
(g10
S'6\x98E\xdf\xa5\xfa\xe1?'
p3521
tp3522
Rp3523
aF0.7104386055662889
ag6
(g21
S'\x00\x00\x00\x00'
p3524
tp3525
Rp3526
ag6
(g21
S'\xdc!\x02A'
p3527
tp3528
Rp3529
aaa(lp3530
(g2441
I73
tp3531
a(lp3532
g6
(g10
S'\x83\xab\xf8U*\xb9\xe2?'
p3533
tp3534
Rp3535
ag6
(g10
S'\xcb\x18\x1b\xf9y\xd4\xfd?'
p3536
tp3537
Rp3538
aF1.2337051455510413
ag6
(g21
S'\x00\x00\x00\x00'
p3539
tp3540
Rp3541
ag6
(g21
S'\xd8\x1f$A'
p3542
tp3543
Rp3544
aaa(lp3545
(g2441
I74
tp3546
a(lp3547
g6
(g10
S'u\xbe\xbf}\xe3D\xec?'
p3548
tp3549
Rp3550
ag6
(g10
S'X\x04\x85\xc1w\x90\x06@'
p3551
tp3552
Rp3553
aF1.4283308440501794
ag6
(g21
S'\x00\x00\x00\x00'
p3554
tp3555
Rp3556
ag6
(g21
S'Gw%A'
p3557
tp3558
Rp3559
aaa(lp3560
(g2441
I75
tp3561
a(lp3562
g6
(g10
S'*\xfe\xf9\xb2f\x83\xf8?'
p3563
tp3564
Rp3565
ag6
(g10
S' &\x97\x8e\xf4\x8c\x17@'
p3566
tp3567
Rp3568
aF1.8815901309785084
ag6
(g21
S'\x00\x00\x00\x00'
p3569
tp3570
Rp3571
ag6
(g21
S'42(A'
p3572
tp3573
Rp3574
aaa(lp3575
(g2441
I76
tp3576
a(lp3577
g6
(g10
S'q\xd5L\xc7\xd0\xf1\xe7?'
p3578
tp3579
Rp3580
ag6
(g10
S'\xa5|Np#V\x03@'
p3581
tp3582
Rp3583
aF1.3627743890146793
ag6
(g21
S'\x00\x00\x00\x00'
p3584
tp3585
Rp3586
ag6
(g21
S'uG\rA'
p3587
tp3588
Rp3589
aaa(lp3590
(g2441
I77
tp3591
a(lp3592
g6
(g10
S'M$MI\x82R\xea?'
p3593
tp3594
Rp3595
ag6
(g10
S']\x87]A\x8f\xe2\x12@'
p3596
tp3597
Rp3598
aF2.011125327989726
ag6
(g21
S'\x00\x00\x00\x00'
p3599
tp3600
Rp3601
ag6
(g21
S'p\xec>A'
p3602
tp3603
Rp3604
aaa(lp3605
(g2441
I78
tp3606
a(lp3607
g6
(g10
S'\x90Z\xb8\xdd\xd1Y\xe7?'
p3608
tp3609
Rp3610
ag6
(g10
S'\x18>\xef\xc0\xd6(\n@'
p3611
tp3612
Rp3613
aF1.6545264751638544
ag6
(g21
S'\x00\x00\x00\x00'
p3614
tp3615
Rp3616
ag6
(g21
S'7IKA'
p3617
tp3618
Rp3619
aaa(lp3620
(g2441
I79
tp3621
a(lp3622
g6
(g10
S'y\xa5\xec\xc7;{\xe8?'
p3623
tp3624
Rp3625
ag6
(g10
S'\xc7\x8b\xbe}\xb8\xf1\x08@'
p3626
tp3627
Rp3628
aF1.5914573957384883
ag6
(g21
S'\x00\x00\x00\x00'
p3629
tp3630
Rp3631
ag6
(g21
S'\xca\xad!A'
p3632
tp3633
Rp3634
aaa(lp3635
(g2441
I80
tp3636
a(lp3637
g6
(g10
S'\x02wct"\x84\xf8?'
p3638
tp3639
Rp3640
ag6
(g10
S'\xdf\xfa\xc1f?\r\x1a@'
p3641
tp3642
Rp3643
aF2.0408621306619477
ag6
(g21
S'\x00\x00\x00\x00'
p3644
tp3645
Rp3646
ag6
(g21
S'\xe5`&A'
p3647
tp3648
Rp3649
aaa(lp3650
(g2441
I81
tp3651
a(lp3652
g6
(g10
S'\x8c\x8f\x0c\n\xa8\xa5\xe1?'
p3653
tp3654
Rp3655
ag6
(g10
S'\x15\x80u\x1e\x83\x0e\xfa?'
p3656
tp3657
Rp3658
aF1.1508353252106824
ag6
(g21
S'\x00\x00\x00\x00'
p3659
tp3660
Rp3661
ag6
(g21
S'\x95\x19\x18A'
p3662
tp3663
Rp3664
aaa(lp3665
(g2441
I82
tp3666
a(lp3667
g6
(g10
S'\xd7\x1dg\t\xae|\xf7?'
p3668
tp3669
Rp3670
ag6
(g10
S'I7\x1do\nZ!@'
p3671
tp3672
Rp3673
aF2.553627760366557
ag6
(g21
S'\x00\x00\x00\x00'
p3674
tp3675
Rp3676
ag6
(g21
S'\x82\xf9bA'
p3677
tp3678
Rp3679
aaa(lp3680
(g2441
I83
tp3681
a(lp3682
g6
(g10
S'\xa6\xea\x186\xbd\x9e\xe4?'
p3683
tp3684
Rp3685
ag6
(g10
S'\x00\xc7\x15\xa7\x94t\x00@'
p3686
tp3687
Rp3688
aF1.281289198821411
ag6
(g21
S'\x00\x00\x00\x00'
p3689
tp3690
Rp3691
ag6
(g21
S'\x01s,A'
p3692
tp3693
Rp3694
aaa(lp3695
(Vdense_3
p3696
I0
tp3697
a(lp3698
g6
(g10
S'\x83\xffe*\x89$\xb9?'
p3699
tp3700
Rp3701
ag6
(g10
S'\xb9\x91\xa7\x13\x86\x07\xb9?'
p3702
tp3703
Rp3704
aF0.29685874415610686
ag6
(g21
S'\x00\x00\x00\x00'
p3705
tp3706
Rp3707
ag6
(g21
S'\x00\x00\x80?'
p3708
tp3709
Rp3710
aaa(lp3711
(g3696
I1
tp3712
a(lp3713
g6
(g10
S' %\xf0}L\xf0\xbc?'
p3714
tp3715
Rp3716
ag6
(g10
S'q\xdf\xb42\xe0\xc7\xbc?'
p3717
tp3718
Rp3719
aF0.31566824898724083
ag6
(g21
S'\x00\x00\x00\x00'
p3720
tp3721
Rp3722
ag6
(g21
S'\x00\x00\x80?'
p3723
tp3724
Rp3725
aaa(lp3726
(g3696
I2
tp3727
a(lp3728
g6
(g10
S'$N,\x90si\xba?'
p3729
tp3730
Rp3731
ag6
(g10
S'<Rj\x18)\xe3\xb9?'
p3732
tp3733
Rp3734
aF0.30079573401670917
ag6
(g21
S'\x9c[\x95\x16'
p3735
tp3736
Rp3737
ag6
(g21
S'\x00\x00\x80?'
p3738
tp3739
Rp3740
aaa(lp3741
(g3696
I3
tp3742
a(lp3743
g6
(g10
S'\xd8\x18\x84\xe9\xaf\xd1\xbc?'
p3744
tp3745
Rp3746
ag6
(g10
S'\xe0\x0eo\xc3\x07\xf5\xbb?'
p3747
tp3748
Rp3749
aF0.3107001476875738
ag6
(g21
S'\x03\xdec\x06'
p3750
tp3751
Rp3752
ag6
(g21
S'\x00\x00\x80?'
p3753
tp3754
Rp3755
aaa(lp3756
(g3696
I4
tp3757
a(lp3758
g6
(g10
S'8\x04\xb2\xfe%\x1d\xb9?'
p3759
tp3760
Rp3761
ag6
(g10
S'\xd5\xf9\xa1\x88\xe1\xd6\xb8?'
p3762
tp3763
Rp3764
aF0.29564338937120394
ag6
(g21
S'|>\x1f\x07'
p3765
tp3766
Rp3767
ag6
(g21
S'\x00\x00\x80?'
p3768
tp3769
Rp3770
aaa(lp3771
(g3696
I5
tp3772
a(lp3773
g6
(g10
S'x\x15$@\xb1\x08\xb3?'
p3774
tp3775
Rp3776
ag6
(g10
S'\xe1\x93"\x84\x0b\x17\xb2?'
p3777
tp3778
Rp3779
aF0.2552175739898464
ag6
(g21
S'\x1c\xf3S\n'
p3780
tp3781
Rp3782
ag6
(g21
S'\x00\x00\x80?'
p3783
tp3784
Rp3785
aaa(lp3786
(g3696
I6
tp3787
a(lp3788
g6
(g10
S"\xd0\x9d'\x01\xdb\xcd\xb8?"
p3789
tp3790
Rp3791
ag6
(g10
S'\xc6\x07\xdd]\xc4\x8e\xb8?'
p3792
tp3793
Rp3794
aF0.2941777797478758
ag6
(g21
S'd\x01-\n'
p3795
tp3796
Rp3797
ag6
(g21
S'\x00\x00\x80?'
p3798
tp3799
Rp3800
aaa(lp3801
(g3696
I7
tp3802
a(lp3803
g6
(g10
S'\x18\x86V\xb4M\xcf\xba?'
p3804
tp3805
Rp3806
ag6
(g10
S'\xf4ud^d|\xba?'
p3807
tp3808
Rp3809
aF0.3041267825438818
ag6
(g21
S'J2q\x08'
p3810
tp3811
Rp3812
ag6
(g21
S'\x00\x00\x80?'
p3813
tp3814
Rp3815
aaa(lp3816
(g3696
I8
tp3817
a(lp3818
g6
(g10
S'`u9\x9a\x1a\xd1\xb9?'
p3819
tp3820
Rp3821
ag6
(g10
S'\xda\xde\xb1&\xf9o\xb9?'
p3822
tp3823
Rp3824
aF0.2986548582652368
ag6
(g21
S'~\xe4\xe4\x17'
p3825
tp3826
Rp3827
ag6
(g21
S'\x00\x00\x80?'
p3828
tp3829
Rp3830
aaa(lp3831
(g3696
I9
tp3832
a(lp3833
g6
(g10
S'\t\xa5Xh\xec\x1b\xb9?'
p3834
tp3835
Rp3836
ag6
(g10
S'\xe2\xc0\xc3\xc0\xe1\xb0\xb8?'
p3837
tp3838
Rp3839
aF0.29466737124706777
ag6
(g21
S'\xb4\xb1\x9c\x0e'
p3840
tp3841
Rp3842
ag6
(g21
S'\x00\x00\x80?'
p3843
tp3844
Rp3845
aaatp3846
Rp3847
.