ccollections
OrderedDict
p0
((lp1
(lp2
(Vconv2d_1
p3
I0
tp4
a(lp5
cnumpy.core.multiarray
scalar
p6
(cnumpy
dtype
p7
(S'f8'
p8
I0
I1
tp9
Rp10
(I3
S'<'
p11
NNNI-1
I-1
I0
tp12
bS'\xc7\xafx\x1c\xa9:\xd2?'
p13
tp14
Rp15
ag6
(g10
S"\x97p\x01\x00'\xe7\xb7?"
p16
tp17
Rp18
aF0.11064593004748705
ag6
(g7
(S'f4'
p19
I0
I1
tp20
Rp21
(I3
S'<'
p22
NNNI-1
I-1
I0
tp23
bS'\xa0\xcc\xf2<'
p24
tp25
Rp26
ag6
(g21
S'\xd0m4?'
p27
tp28
Rp29
aaa(lp30
(g3
I1
tp31
a(lp32
g6
(g10
S'\x08\xe6\x89\xb7\xe8\x1a\xd4?'
p33
tp34
Rp35
ag6
(g10
S'\xd9\x19\xf6\xb8}\xd8\xb9?'
p36
tp37
Rp38
aF0.047688528962694446
ag6
(g21
S'\xa4\xf67>'
p39
tp40
Rp41
ag6
(g21
S'\x84\x95\n?'
p42
tp43
Rp44
aaa(lp45
(g3
I2
tp46
a(lp47
g6
(g10
S'\xd7\x88\x12\x81n\xbf\xcb?'
p48
tp49
Rp50
ag6
(g10
S'\x7fj\xfc\x83Co\xa9?'
p51
tp52
Rp53
aF0.05180381307645564
ag6
(g21
S'\xca\xd2B='
p54
tp55
Rp56
ag6
(g21
S'\xb7\xb8\xdf>'
p57
tp58
Rp59
aaa(lp60
(g3
I3
tp61
a(lp62
g6
(g10
S'\xea\xc5S\xc3\xe9\x83\xd1?'
p63
tp64
Rp65
ag6
(g10
S'\xf8}2\xf4\x0e\xf1\xb5?'
p66
tp67
Rp68
aF0.10397485756815102
ag6
(g21
S'\xd4p\xea<'
p69
tp70
Rp71
ag6
(g21
S'\x82\xe4\x80?'
p72
tp73
Rp74
aaa(lp75
(Vblock1_pool1
p76
I0
tp77
a(lp78
g6
(g10
S'\x19\xbdM\n\xae\x03\xdf?'
p79
tp80
Rp81
ag6
(g10
S'&u,zl%\xd1?'
p82
tp83
Rp84
aF0.18185816327571433
ag6
(g21
S'\xa9\xa1^='
p85
tp86
Rp87
ag6
(g21
S'\xfb\x8f\x8e?'
p88
tp89
Rp90
aaa(lp91
(g76
I1
tp92
a(lp93
g6
(g10
S'5?\xeb\n\xab\x02\xdc?'
p94
tp95
Rp96
ag6
(g10
S'\xa5\x8da\xcf\x952\xc9?'
p97
tp98
Rp99
aF0.07285236673117029
ag6
(g21
S'\x8b\xd4\x80>'
p100
tp101
Rp102
ag6
(g21
S'\x95\xd1F?'
p103
tp104
Rp105
aaa(lp106
(g76
I2
tp107
a(lp108
g6
(g10
S'\xb7\r\xf49\x0f\xd9\xd8?'
p109
tp110
Rp111
ag6
(g10
S'\x06%ke\xa8U\xc4?'
p112
tp113
Rp114
aF0.09015185959586915
ag6
(g21
S'\x9c0\xb9='
p115
tp116
Rp117
ag6
(g21
S'>`B?'
p118
tp119
Rp120
aaa(lp121
(g76
I3
tp122
a(lp123
g6
(g10
S' \x97\xff\x077\xf7\xdd?'
p124
tp125
Rp126
ag6
(g10
S'\xc8\xdf\xbb=\x15\xfa\xce?'
p127
tp128
Rp129
aF0.1509395917467696
ag6
(g21
S'\xf4\x84\x88='
p130
tp131
Rp132
ag6
(g21
S'\xb4\x8f\xa1?'
p133
tp134
Rp135
aaa(lp136
(Vconv2d_2
p137
I0
tp138
a(lp139
g6
(g10
S'\xc4<9j1i\xdf?'
p140
tp141
Rp142
ag6
(g10
S'LA\xd8\xca\x92\xc2\xd1?'
p143
tp144
Rp145
aF0.19136515402169432
ag6
(g21
S'\x00\x00\x00\x00'
p146
tp147
Rp148
ag6
(g21
S'\xbe\xf5\x9b?'
p149
tp150
Rp151
aaa(lp152
(g137
I1
tp153
a(lp154
g6
(g10
S'\xad\n\x80M\x13\xe7\xcd?'
p155
tp156
Rp157
ag6
(g10
S'\x8cs\xd6\xc0K\xca\xb3?'
p158
tp159
Rp160
aF0.15076428849708537
ag6
(g21
S'\x00\x00\x00\x00'
p161
tp162
Rp163
ag6
(g21
S'\xdf\x00{?'
p164
tp165
Rp166
aaa(lp167
(g137
I2
tp168
a(lp169
g6
(g10
S'\xdb*?\x14P\xbd\xd4?'
p170
tp171
Rp172
ag6
(g10
S'\xeeZ\xa5\xc8\xf2\xf4\xc0?'
p173
tp174
Rp175
aF0.16572193172069913
ag6
(g21
S'\x00\x00\x00\x00'
p176
tp177
Rp178
ag6
(g21
S'\xe8U\xa9?'
p179
tp180
Rp181
aaa(lp182
(g137
I3
tp183
a(lp184
g6
(g10
S'3\xf8\xf4\x8bd\x9c\xe5?'
p185
tp186
Rp187
ag6
(g10
S'\x01h\xb1\x9fj\x84\xe5?'
p188
tp189
Rp190
aF0.465111572053336
ag6
(g21
S'\x00\x00\x00\x00'
p191
tp192
Rp193
ag6
(g21
S'\xdf\xf8\x0c@'
p194
tp195
Rp196
aaa(lp197
(g137
I4
tp198
a(lp199
g6
(g10
S'\xdb\xdd\xb1Q\xd1\x98\xd5?'
p200
tp201
Rp202
ag6
(g10
S'f\x86\x18\xa4\xfe\n\xc2?'
p203
tp204
Rp205
aF0.16457980065790537
ag6
(g21
S'\x00\x00\x00\x00'
p206
tp207
Rp208
ag6
(g21
S'\xc0\x8fu?'
p209
tp210
Rp211
aaa(lp212
(g137
I5
tp213
a(lp214
g6
(g10
S'\x0e\xb33Y\x02\xf7\xd8?'
p215
tp216
Rp217
ag6
(g10
S'z:\xe5\xa6\x8b\xd3\xcb?'
p218
tp219
Rp220
aF0.25540924228395295
ag6
(g21
S'\x00\x00\x00\x00'
p221
tp222
Rp223
ag6
(g21
S'\xb4M\xde?'
p224
tp225
Rp226
aaa(lp227
(g137
I6
tp228
a(lp229
g6
(g10
S'\xbe\xa1\x86W\x9d\xbb\xcf?'
p230
tp231
Rp232
ag6
(g10
S'k:F\xa9\xb9\x93\xb7?'
p233
tp234
Rp235
aF0.17503422812295621
ag6
(g21
S'\x00\x00\x00\x00'
p236
tp237
Rp238
ag6
(g21
S'\xe8\x96\xad?'
p239
tp240
Rp241
aaa(lp242
(g137
I7
tp243
a(lp244
g6
(g10
S'\xc7\x90\x99\xc7gx\xd3?'
p245
tp246
Rp247
ag6
(g10
S'[W\xa9.1\xd5\xc3?'
p248
tp249
Rp250
aF0.24978268198184864
ag6
(g21
S'\x00\x00\x00\x00'
p251
tp252
Rp253
ag6
(g21
S':.\xdc?'
p254
tp255
Rp256
aaa(lp257
(g137
I8
tp258
a(lp259
g6
(g10
S'\x11\\\xe8\xc3l\x8f\xd6?'
p260
tp261
Rp262
ag6
(g10
S'm\x94?\xb1\xc4\x12\xc5?'
p263
tp264
Rp265
aF0.20093835584962214
ag6
(g21
S'\x00\x00\x00\x00'
p266
tp267
Rp268
ag6
(g21
S'\xfe\xfa\x87?'
p269
tp270
Rp271
aaa(lp272
(g137
I9
tp273
a(lp274
g6
(g10
S'\xa7\xad\xf0\xfd\x16\x9a\xcc?'
p275
tp276
Rp277
ag6
(g10
S'\x1c\x93\x98V\nc\xb4?'
p278
tp279
Rp280
aF0.17235208110062758
ag6
(g21
S'\x00\x00\x00\x00'
p281
tp282
Rp283
ag6
(g21
S'\xf3\tv?'
p284
tp285
Rp286
aaa(lp287
(g137
I10
tp288
a(lp289
g6
(g10
S'\xd3\xe9\x7f\xa8\xa4\xbb\xd9?'
p290
tp291
Rp292
ag6
(g10
S'\x83hNZ6\x1d\xcc?'
p293
tp294
Rp295
aF0.24077978798028338
ag6
(g21
S'\x00\x00\x00\x00'
p296
tp297
Rp298
ag6
(g21
S'{u\xaf?'
p299
tp300
Rp301
aaa(lp302
(g137
I11
tp303
a(lp304
g6
(g10
S'\x06\xc98\xed-\x18\xd2?'
p305
tp306
Rp307
ag6
(g10
S'\xf1\x16"L\xfa\x1e\xc2?'
p308
tp309
Rp310
aF0.24826697484582916
ag6
(g21
S'\x00\x00\x00\x00'
p311
tp312
Rp313
ag6
(g21
S'<,B@'
p314
tp315
Rp316
aaa(lp317
(Vmax_pooling2d_1
p318
I0
tp319
a(lp320
g6
(g10
S'z\xa5\x9c\xbd<e\xef?'
p321
tp322
Rp323
ag6
(g10
S'f\x08\x15n\x9b8\xf1?'
p324
tp325
Rp326
aF0.33726409452322853
ag6
(g21
S'\x00\x00\x00\x00'
p327
tp328
Rp329
ag6
(g21
S' Z+@'
p330
tp331
Rp332
aaa(lp333
(g318
I1
tp334
a(lp335
g6
(g10
S'G\t\x90\x9d\xf5I\xe4?'
p336
tp337
Rp338
ag6
(g10
S'Z\xccm9\x1a\xec\xe1?'
p339
tp340
Rp341
aF0.39759184462587194
ag6
(g21
S'\x00\x00\x00\x00'
p342
tp343
Rp344
ag6
(g21
S'\xd8\x94/@'
p345
tp346
Rp347
aaa(lp348
(g318
I2
tp349
a(lp350
g6
(g10
S'\xa5f\x11\x90[e\xe7?'
p351
tp352
Rp353
ag6
(g10
S'\xe1\xa8<\xd7\xf0\xcb\xe4?'
p354
tp355
Rp356
aF0.33963895833276486
ag6
(g21
S'\x00\x00\x00\x00'
p357
tp358
Rp359
ag6
(g21
S'\xe8\xf0\x1f@'
p360
tp361
Rp362
aaa(lp363
(g318
I3
tp364
a(lp365
g6
(g10
S'\x1f%:\x13;\x87\xf4?'
p366
tp367
Rp368
ag6
(g10
S'OEI\x98\x15\\\x02@'
p369
tp370
Rp371
aF0.8055027904591969
ag6
(g21
S'\x00\x00\x00\x00'
p372
tp373
Rp374
ag6
(g21
S'\xbb/\x84@'
p375
tp376
Rp377
aaa(lp378
(g318
I4
tp379
a(lp380
g6
(g10
S'u7\xb3~\xfe\x08\xe7?'
p381
tp382
Rp383
ag6
(g10
S'\x99\xf4\xad\xe2\xaa\xee\xe3?'
p384
tp385
Rp386
aF0.323578735380655
ag6
(g21
S'\x00\x00\x00\x00'
p387
tp388
Rp389
ag6
(g21
S'\xc8R\x03@'
p390
tp391
Rp392
aaa(lp393
(g318
I5
tp394
a(lp395
g6
(g10
S'\xa6\xe6mC\x0e\xa5\xec?'
p396
tp397
Rp398
ag6
(g10
S'\xf9\xe6!w\x83\x18\xf1?'
p399
tp400
Rp401
aF0.5169081997419697
ag6
(g21
S'\x00\x00\x00\x00'
p402
tp403
Rp404
ag6
(g21
S'O\xaez@'
p405
tp406
Rp407
aaa(lp408
(g318
I6
tp409
a(lp410
g6
(g10
S'\xed\xb6\xd2\xfb\x19o\xe2?'
p411
tp412
Rp413
ag6
(g10
S'v\xb00p\xed\x1d\xdd?'
p414
tp415
Rp416
aF0.35086176350190007
ag6
(g21
S'\x00\x00\x00\x00'
p417
tp418
Rp419
ag6
(g21
S'\x82Z)@'
p420
tp421
Rp422
aaa(lp423
(g318
I7
tp424
a(lp425
g6
(g10
S'h8f\xf6\x16\xcb\xe5?'
p426
tp427
Rp428
ag6
(g10
S'E\x15&\x98{\x0b\xe8?'
p429
tp430
Rp431
aF0.5362691121455141
ag6
(g21
S'\x00\x00\x00\x00'
p432
tp433
Rp434
ag6
(g21
S'E\xf1~@'
p435
tp436
Rp437
aaa(lp438
(g318
I8
tp439
a(lp440
g6
(g10
S'\x8c\xcbz\xb8T\xf0\xea?'
p441
tp442
Rp443
ag6
(g10
S'\x98P\xb5\xd8R)\xec?'
p444
tp445
Rp446
aF0.41394974694589315
ag6
(g21
S'\x00\x00\x00\x00'
p447
tp448
Rp449
ag6
(g21
S'Cx0@'
p450
tp451
Rp452
aaa(lp453
(g318
I9
tp454
a(lp455
g6
(g10
S'iN]\xf0\xb5\xea\xe0?'
p456
tp457
Rp458
ag6
(g10
S'\x03\xd7\xf7Bb\x03\xda?'
p459
tp460
Rp461
aF0.3563487515809854
ag6
(g21
S'\x00\x00\x00\x00'
p462
tp463
Rp464
ag6
(g21
S'\xed\xc5\x13@'
p465
tp466
Rp467
aaa(lp468
(g318
I10
tp469
a(lp470
g6
(g10
S'\x16\xdb!\x0f\xf4~\xec?'
p471
tp472
Rp473
ag6
(g10
S'\xa5\x7f\xfcM\xb0\xbf\xf0?'
p474
tp475
Rp476
aF0.5037992353703615
ag6
(g21
S'\x00\x00\x00\x00'
p477
tp478
Rp479
ag6
(g21
S'f\x9a;@'
p480
tp481
Rp482
aaa(lp483
(g318
I11
tp484
a(lp485
g6
(g10
S'\xe3\xdd\xb3E\xccy\xe0?'
p486
tp487
Rp488
ag6
(g10
S'4\x81\\nK\x17\xda?'
p489
tp490
Rp491
aF0.3776014109154744
ag6
(g21
S'\x00\x00\x00\x00'
p492
tp493
Rp494
ag6
(g21
S'\xd1c\x7f@'
p495
tp496
Rp497
aaa(lp498
(Vdense_1
p499
I0
tp500
a(lp501
g6
(g10
S'\xbb\xec\xff>\x8f\x1d\xb9?'
p502
tp503
Rp504
ag6
(g10
S'o\xc7\x07\x1b*\xb2\xb8?'
p505
tp506
Rp507
aF0.29469226864463616
ag6
(g21
S'\xdd\xe6,"'
p508
tp509
Rp510
ag6
(g21
S'\x00\x00\x80?'
p511
tp512
Rp513
aaa(lp514
(g499
I1
tp515
a(lp516
g6
(g10
S'\x03/f\xaa\x1d\xcc\xbc?'
p517
tp518
Rp519
ag6
(g10
S'\x95\xc6\xf6\xd2vs\xbc?'
p520
tp521
Rp522
aF0.313819919436641
ag6
(g21
S'\xf3\xd5\x1d\x1c'
p523
tp524
Rp525
ag6
(g21
S'\xce\xff\x7f?'
p526
tp527
Rp528
aaa(lp529
(g499
I2
tp530
a(lp531
g6
(g10
S'\xe1Bq\xee\xc7\xb0\xb9?'
p532
tp533
Rp534
ag6
(g10
S']%\xd2\xc3\x075\xb8?'
p535
tp536
Rp537
aF0.29066873032600593
ag6
(g21
S'}\xad\xab)'
p538
tp539
Rp540
ag6
(g21
S'\x00\x00\x80?'
p541
tp542
Rp543
aaa(lp544
(g499
I3
tp545
a(lp546
g6
(g10
S'=\xbd\x86\xa8m\xb6\xba?'
p547
tp548
Rp549
ag6
(g10
S'\xe7\x95\xe0plQ\xb9?'
p550
tp551
Rp552
aF0.29666573689971354
ag6
(g21
S'\xdd\x9b" '
p553
tp554
Rp555
ag6
(g21
S'\x00\x00\x80?'
p556
tp557
Rp558
aaa(lp559
(g499
I4
tp560
a(lp561
g6
(g10
S'R6\x8e\x81\xd8"\xb9?'
p562
tp563
Rp564
ag6
(g10
S'\xf3\xde\x18\xb6\xd5\x92\xb8?'
p565
tp566
Rp567
aF0.29385310472906434
ag6
(g21
S'\xdd\xa6.\x1e'
p568
tp569
Rp570
ag6
(g21
S'\x00\x00\x80?'
p571
tp572
Rp573
aaa(lp574
(g499
I5
tp575
a(lp576
g6
(g10
S'\xbb\xef\xf7\xb7\xc0\xce\xb6?'
p577
tp578
Rp579
ag6
(g10
S'38a\xdf\xa7]\xb5?'
p580
tp581
Rp582
aF0.27481427528291424
ag6
(g21
S'\xdc\xb0\xd7 '
p583
tp584
Rp585
ag6
(g21
S'\x00\x00\x80?'
p586
tp587
Rp588
aaa(lp589
(g499
I6
tp590
a(lp591
g6
(g10
S']<nT\xb3\x04\xb9?'
p592
tp593
Rp594
ag6
(g10
S'\xe9\xb4\xce\x05\xd9,\xb8?'
p595
tp596
Rp597
aF0.29134784256579205
ag6
(g21
S'\x854;&'
p598
tp599
Rp600
ag6
(g21
S'\x00\x00\x80?'
p601
tp602
Rp603
aaa(lp604
(g499
I7
tp605
a(lp606
g6
(g10
S'\xb1a\xe1^I\xad\xba?'
p607
tp608
Rp609
ag6
(g10
S'\xb3\xebT\x13\xdc\xef\xb9?'
p610
tp611
Rp612
aF0.30076102392045123
ag6
(g21
S'\xc0r`\x1e'
p613
tp614
Rp615
ag6
(g21
S'\x00\x00\x80?'
p616
tp617
Rp618
aaa(lp619
(g499
I8
tp620
a(lp621
g6
(g10
S'\xb87U\xfb\xcc\xba\xb8?'
p622
tp623
Rp624
ag6
(g10
S'\xbd\xa3f\xfbK\xe0\xb7?'
p625
tp626
Rp627
aF0.2897147208958086
ag6
(g21
S'\xf08\xe5%'
p628
tp629
Rp630
ag6
(g21
S'\x00\x00\x80?'
p631
tp632
Rp633
aaa(lp634
(g499
I9
tp635
a(lp636
g6
(g10
S'\x00B \xa1\xbaP\xb9?'
p637
tp638
Rp639
ag6
(g10
S'\x9a+ \xfd7e\xb8?'
p640
tp641
Rp642
aF0.2924305440491127
ag6
(g21
S'\x8b\x05\x9c '
p643
tp644
Rp645
ag6
(g21
S'\xfc\xff\x7f?'
p646
tp647
Rp648
aaatp649
Rp650
.