ccollections
OrderedDict
p0
((lp1
(lp2
(Vconv2d_1
p3
I0
tp4
a(lp5
cnumpy.core.multiarray
scalar
p6
(cnumpy
dtype
p7
(S'f8'
p8
I0
I1
tp9
Rp10
(I3
S'<'
p11
NNNI-1
I-1
I0
tp12
bS'\xc7\xf9\x9c\xba\xa0\xfe\xc0?'
p13
tp14
Rp15
ag6
(g10
S'\xd7\x8d\x1fr\x93}\x96?'
p16
tp17
Rp18
aF0.06584352928078259
ag6
(g7
(S'f4'
p19
I0
I1
tp20
Rp21
(I3
S'<'
p22
NNNI-1
I-1
I0
tp23
bS'\xccZ\xc0;'
p24
tp25
Rp26
ag6
(g21
S'DJ\xde>'
p27
tp28
Rp29
aaa(lp30
(g3
I1
tp31
a(lp32
g6
(g10
S'4<\xbd\xd3(\x89\xe1?'
p33
tp34
Rp35
ag6
(g10
S'\xa8\xf7.\xee(}\xd3?'
p36
tp37
Rp38
aF0.06494393499029956
ag6
(g21
S'<jn>'
p39
tp40
Rp41
ag6
(g21
S'\xf7b>?'
p42
tp43
Rp44
aaa(lp45
(g3
I2
tp46
a(lp47
g6
(g10
S'\x86\x13+\xcd\xa3 \xbf?'
p48
tp49
Rp50
ag6
(g10
S'F\xec2\xdd\xbd\x8c\x90?'
p51
tp52
Rp53
aF0.03711229316246657
ag6
(g21
S'>g\xfc<'
p54
tp55
Rp56
ag6
(g21
S'iD\x92>'
p57
tp58
Rp59
aaa(lp60
(g3
I3
tp61
a(lp62
g6
(g10
S'\xa6f0t\xe5\xa6\xc6?'
p63
tp64
Rp65
ag6
(g10
S'H_\x83\xca$\xdc\xa1?'
p66
tp67
Rp68
aF0.05970694528362629
ag6
(g21
S'\xf5\xd9\x9f<'
p69
tp70
Rp71
ag6
(g21
S'\x94\x81\xb6>'
p72
tp73
Rp74
aaa(lp75
(g3
I4
tp76
a(lp77
g6
(g10
S'\x93\xd2\xde=\xb7\xce\xcc?'
p78
tp79
Rp80
ag6
(g10
S'\xfdk\xb3N\xf3\xc1\xab?'
p81
tp82
Rp83
aF0.05968908200586899
ag6
(g21
S'9\x9b\x01='
p84
tp85
Rp86
ag6
(g21
S'4\x1a\xe6>'
p87
tp88
Rp89
aaa(lp90
(g3
I5
tp91
a(lp92
g6
(g10
S'\n\xa4\xd5iQh\xd5?'
p93
tp94
Rp95
ag6
(g10
S"DQ#\x05h'\xc0?"
p96
tp97
Rp98
aF0.11965635380644052
ag6
(g21
S'\x10\xddI='
p99
tp100
Rp101
ag6
(g21
S'p\x1cH?'
p102
tp103
Rp104
aaa(lp105
(Vblock1_pool1
p106
I0
tp107
a(lp108
g6
(g10
S'\x8b}\xed\x8d\xec\x85\xd0?'
p109
tp110
Rp111
ag6
(g10
S'p\x9a\x99\xc5t\xf7\xb4?'
p112
tp113
Rp114
aF0.12347885719189776
ag6
(g21
S'U\x19u<'
p115
tp116
Rp117
ag6
(g21
S'\x87\xddX?'
p118
tp119
Rp120
aaa(lp121
(g106
I1
tp122
a(lp123
g6
(g10
S'"$M\xd5)\x19\xe7?'
p124
tp125
Rp126
ag6
(g10
S'\x93\xa2\xa8\xf3$\xec\xe0?'
p127
tp128
Rp129
aF0.0883155665336411
ag6
(g21
S'9\x8a\xaf>'
p130
tp131
Rp132
ag6
(g21
S']\xb3\x85?'
p133
tp134
Rp135
aaa(lp136
(g106
I2
tp137
a(lp138
g6
(g10
S'\x91\xe7`\x11<\x07\xce?'
p139
tp140
Rp141
ag6
(g10
S'\x86\xc6\xf6\xab\x14\xc4\xae?'
p142
tp143
Rp144
aF0.07109532801469502
ag6
(g21
S'\xc9aH='
p145
tp146
Rp147
ag6
(g21
S'\xb6\xca\t?'
p148
tp149
Rp150
aaa(lp151
(g106
I3
tp152
a(lp153
g6
(g10
S'\x8c\xbe$\x84}\xb5\xd5?'
p154
tp155
Rp156
ag6
(g10
S'H\xdd\xab\xac\xbe+\xc0?'
p157
tp158
Rp159
aF0.10619224731825098
ag6
(g21
S'2\x85%='
p160
tp161
Rp162
ag6
(g21
S'\xb4u-?'
p163
tp164
Rp165
aaa(lp166
(g106
I4
tp167
a(lp168
g6
(g10
S'\xd8\x86\xa7\xd4\x96\x9a\xda?'
p169
tp170
Rp171
ag6
(g10
S'->[\xecRh\xc7?'
p172
tp173
Rp174
aF0.10038367618134042
ag6
(g21
S"'\xaf\x8c="
p175
tp176
Rp177
ag6
(g21
S'\x88\xfdL?'
p178
tp179
Rp180
aaa(lp181
(g106
I5
tp182
a(lp183
g6
(g10
S'\xc2\x07\xbd\xd6\xe35\xe0?'
p184
tp185
Rp186
ag6
(g10
S'1\xb4\xa0\xfc\xd8b\xd2?'
p187
tp188
Rp189
aF0.1751043560037908
ag6
(g21
S'\xa2\x15\xa5='
p190
tp191
Rp192
ag6
(g21
S'2F\x8f?'
p193
tp194
Rp195
aaa(lp196
(Vconv2d_2
p197
I0
tp198
a(lp199
g6
(g10
S'l\x1d?\x8a-\xd3\xe9?'
p200
tp201
Rp202
ag6
(g10
S'xI\x95\xad-]\xee?'
p203
tp204
Rp205
aF0.5455082380179802
ag6
(g21
S'\x00\x00\x00\x00'
p206
tp207
Rp208
ag6
(g21
S'm\x12g@'
p209
tp210
Rp211
aaa(lp212
(g197
I1
tp213
a(lp214
g6
(g10
S'\xe0\x02\xae\x16\x04\x9d\xe0?'
p215
tp216
Rp217
ag6
(g10
S'\xa9Y\x08\xb2\x00\xfb\xd7?'
p218
tp219
Rp220
aF0.3242847944554364
ag6
(g21
S'\x00\x00\x00\x00'
p221
tp222
Rp223
ag6
(g21
S'\x10C\r@'
p224
tp225
Rp226
aaa(lp227
(g197
I2
tp228
a(lp229
g6
(g10
S"'\xb6\xca\x98\xfc.\xf2?"
p230
tp231
Rp232
ag6
(g10
S'\xc3\xcb*\x1b\xbf\xfe\xf8?'
p233
tp234
Rp235
aF0.5202180416418012
ag6
(g21
S'4xq;'
p236
tp237
Rp238
ag6
(g21
S'V\x980@'
p239
tp240
Rp241
aaa(lp242
(g197
I3
tp243
a(lp244
g6
(g10
S'\xf2\x0c\x15$\xb0\xc3\xe2?'
p245
tp246
Rp247
ag6
(g10
S'\x83\x8er]7\x82\xd8?'
p248
tp249
Rp250
aF0.19773020485091464
ag6
(g21
S'UP|='
p251
tp252
Rp253
ag6
(g21
S'\xfb\x98\xad?'
p254
tp255
Rp256
aaa(lp257
(g197
I4
tp258
a(lp259
g6
(g10
S'\xca\x1e\xf8\xd3p \xe0?'
p260
tp261
Rp262
ag6
(g10
S'\x9c\xe2qm\xd8\xad\xd3?'
p263
tp264
Rp265
aF0.2313221774647076
ag6
(g21
S'\x00\x00\x00\x00'
p266
tp267
Rp268
ag6
(g21
S'\xcc-\xdb?'
p269
tp270
Rp271
aaa(lp272
(g197
I5
tp273
a(lp274
g6
(g10
S'\x04 v\xa33\xf6\xd3?'
p275
tp276
Rp277
ag6
(g10
S'W`U\xb3\xe9\xe2\xc2?'
p278
tp279
Rp280
aF0.2242030313462514
ag6
(g21
S'\x00\x00\x00\x00'
p281
tp282
Rp283
ag6
(g21
S'u\xa4\xcc?'
p284
tp285
Rp286
aaa(lp287
(g197
I6
tp288
a(lp289
g6
(g10
S'\x00\x00\x00\x00\x00\x00\x00\x00'
p290
tp291
Rp292
ag6
(g10
S'\x00\x00\x00\x00\x00\x00\x00\x00'
p293
tp294
Rp295
aF0.0
ag6
(g21
S'\x00\x00\x00\x00'
p296
tp297
Rp298
ag298
aaa(lp299
(g197
I7
tp300
a(lp301
g6
(g10
S'$v\xfb\x10\xb8\xd2\xe3?'
p302
tp303
Rp304
ag6
(g10
S'\x10\x10\x98D\x86O\xe0?'
p305
tp306
Rp307
aF0.354910350158075
ag6
(g21
S'\x00\x00\x00\x00'
p308
tp309
Rp310
ag6
(g21
S'\xd1\x07\n@'
p311
tp312
Rp313
aaa(lp314
(g197
I8
tp315
a(lp316
g6
(g10
S'\x00\x00\x00\x00\x00\x00\x00\x00'
p317
tp318
Rp319
ag6
(g10
S'\x00\x00\x00\x00\x00\x00\x00\x00'
p320
tp321
Rp322
aF0.0
ag6
(g21
S'\x00\x00\x00\x00'
p323
tp324
Rp325
ag325
aaa(lp326
(g197
I9
tp327
a(lp328
g6
(g10
S'b\x95\xae\xd8H\x8a\xe4?'
p329
tp330
Rp331
ag6
(g10
S'\xdf\x15\xd3\xc8J}\xdf?'
p332
tp333
Rp334
aF0.2828634415493381
ag6
(g21
S'\x00\x00\x00\x00'
p335
tp336
Rp337
ag6
(g21
S'\xc4\xec\xe0?'
p338
tp339
Rp340
aaa(lp341
(g197
I10
tp342
a(lp343
g6
(g10
S'\x00\x00\x00\x00\x00\x00\x00\x00'
p344
tp345
Rp346
ag6
(g10
S'\x00\x00\x00\x00\x00\x00\x00\x00'
p347
tp348
Rp349
aF0.0
ag6
(g21
S'\x00\x00\x00\x00'
p350
tp351
Rp352
ag352
aaa(lp353
(g197
I11
tp354
a(lp355
g6
(g10
S'\xef(\xb4\xbc\xb0Q\xe7?'
p356
tp357
Rp358
ag6
(g10
S'\x14\xe3^\x93\x13\xea\xe5?'
p359
tp360
Rp361
aF0.3921582305203249
ag6
(g21
S'\x00\x00\x00\x00'
p362
tp363
Rp364
ag6
(g21
S'\xe7_\x10@'
p365
tp366
Rp367
aaa(lp368
(g197
I12
tp369
a(lp370
g6
(g10
S"\x8b\xfd'\x87\xb3 \xd3?"
p371
tp372
Rp373
ag6
(g10
S'*r>\xe77R\xc2?'
p374
tp375
Rp376
aF0.23197041646441272
ag6
(g21
S'\x00\x00\x00\x00'
p377
tp378
Rp379
ag6
(g21
S'W\xdf\xc6?'
p380
tp381
Rp382
aaa(lp383
(g197
I13
tp384
a(lp385
g6
(g10
S'\xd3\x07\xbd\xb8\x00\x86\xdc?'
p386
tp387
Rp388
ag6
(g10
S'\xbc\xaa\xf0\x16\xb2\xa1\xd4?'
p389
tp390
Rp391
aF0.3517661912208912
ag6
(g21
S'\x00\x00\x00\x00'
p392
tp393
Rp394
ag6
(g21
S'W\x82\xfe?'
p395
tp396
Rp397
aaa(lp398
(g197
I14
tp399
a(lp400
g6
(g10
S'\x00\x00\x00\x00\x00\x00\x00\x00'
p401
tp402
Rp403
ag6
(g10
S'\x00\x00\x00\x00\x00\x00\x00\x00'
p404
tp405
Rp406
aF0.0
ag6
(g21
S'\x00\x00\x00\x00'
p407
tp408
Rp409
ag409
aaa(lp410
(g197
I15
tp411
a(lp412
g6
(g10
S'2\xcf\xef1.\xc7\xd0?'
p413
tp414
Rp415
ag6
(g10
S'\xaf\xacW\xf4\xe3\xc7\xb8?'
p416
tp417
Rp418
aF0.167552345109761
ag6
(g21
S'\x00\x00\x00\x00'
p419
tp420
Rp421
ag6
(g21
S'/n\x8d?'
p422
tp423
Rp424
aaa(lp425
(Vmax_pooling2d_1
p426
I0
tp427
a(lp428
g6
(g10
S'>O\xdf\xd9V\x12\xf7?'
p429
tp430
Rp431
ag6
(g10
S'\xd7"\xc9U\xf9\x06\x07@'
p432
tp433
Rp434
aF0.8939275993858279
ag6
(g21
S'\x00\x00\x00\x00'
p435
tp436
Rp437
ag6
(g21
S'T\xac\xb2@'
p438
tp439
Rp440
aaa(lp441
(g426
I1
tp442
a(lp443
g6
(g10
S'\x02cFI\x18\x02\xf1?'
p444
tp445
Rp446
ag6
(g10
S'bu\x0e-C\n\xf7?'
p447
tp448
Rp449
aF0.5567873414470987
ag6
(g21
S'\x00\x00\x00\x00'
p450
tp451
Rp452
ag6
(g21
S'5\x06x@'
p453
tp454
Rp455
aaa(lp456
(g426
I2
tp457
a(lp458
g6
(g10
S'Y\x0by[P\xe4\x00@'
p459
tp460
Rp461
ag6
(g10
S'\x15]\x0f\xae\xa1\xf2\x14@'
p462
tp463
Rp464
aF0.8823781536222638
ag6
(g21
S'v,Z<'
p465
tp466
Rp467
ag6
(g21
S'j\xd2\x9b@'
p468
tp469
Rp470
aaa(lp471
(g426
I3
tp472
a(lp473
g6
(g10
S'5\xe1\x1aP\xc3\xd6\xf2?'
p474
tp475
Rp476
ag6
(g10
S'\xea\x94\x8f\xfb\x15\x06\xf8?'
p477
tp478
Rp479
aF0.3393211588414306
ag6
(g21
S'\xda\xffL>'
p480
tp481
Rp482
ag6
(g21
S'\xf2\xee3@'
p483
tp484
Rp485
aaa(lp486
(g426
I4
tp487
a(lp488
g6
(g10
S'\xb9\x14\x97T\x88\xae\xf1?'
p489
tp490
Rp491
ag6
(g10
S'\xeb=\xe4\x90\xbaI\xf7?'
p492
tp493
Rp494
aF0.48397418101871564
ag6
(g21
S'\x00\x00\x00\x00'
p495
tp496
Rp497
ag6
(g21
S'\x19\xf1i@'
p498
tp499
Rp500
aaa(lp501
(g426
I5
tp502
a(lp503
g6
(g10
S'\xac\xf2\xc8\xc3\xc4\xf7\xe4?'
p504
tp505
Rp506
ag6
(g10
S'\xc5\xa0c\xbe\x98N\xe3?'
p507
tp508
Rp509
aF0.41713074290804564
ag6
(g21
S'\x00\x00\x00\x00'
p510
tp511
Rp512
ag6
(g21
S'fyE@'
p513
tp514
Rp515
aaa(lp516
(g426
I6
tp517
a(lp518
g6
(g10
S'\x00\x00\x00\x00\x00\x00\x00\x00'
p519
tp520
Rp521
ag6
(g10
S'\x00\x00\x00\x00\x00\x00\x00\x00'
p522
tp523
Rp524
aF0.0
ag6
(g21
S'\x00\x00\x00\x00'
p525
tp526
Rp527
ag527
aaa(lp528
(g426
I7
tp529
a(lp530
g6
(g10
S'\xef\x12\xea\x89+]\xf5?'
p531
tp532
Rp533
ag6
(g10
S'M\tw-e\x91\x02@'
p534
tp535
Rp536
aF0.7335600041444282
ag6
(g21
S'\x00\x00\x00\x00'
p537
tp538
Rp539
ag6
(g21
S'\xd4\x04\xa4@'
p540
tp541
Rp542
aaa(lp543
(g426
I8
tp544
a(lp545
g6
(g10
S'\x00\x00\x00\x00\x00\x00\x00\x00'
p546
tp547
Rp548
ag6
(g10
S'\x00\x00\x00\x00\x00\x00\x00\x00'
p549
tp550
Rp551
aF0.0
ag6
(g21
S'\x00\x00\x00\x00'
p552
tp553
Rp554
ag554
aaa(lp555
(g426
I9
tp556
a(lp557
g6
(g10
S'\xaf\xafkfE\xf4\xf5?'
p558
tp559
Rp560
ag6
(g10
S'\xcb\xdcs3\xbe\xbd\x01@'
p561
tp562
Rp563
aF0.5786962656402018
ag6
(g21
S'\x00\x00\x00\x00'
p564
tp565
Rp566
ag6
(g21
S'\x97Ks@'
p567
tp568
Rp569
aaa(lp570
(g426
I10
tp571
a(lp572
g6
(g10
S'\x00\x00\x00\x00\x00\x00\x00\x00'
p573
tp574
Rp575
ag6
(g10
S'\x00\x00\x00\x00\x00\x00\x00\x00'
p576
tp577
Rp578
aF0.0
ag6
(g21
S'\x00\x00\x00\x00'
p579
tp580
Rp581
ag581
aaa(lp582
(g426
I11
tp583
a(lp584
g6
(g10
S'\xb7\x9e\xba\xe0\x079\xf7?'
p585
tp586
Rp587
ag6
(g10
S'\xf4\x04\xe4\x1a!P\x05@'
p588
tp589
Rp590
aF0.7466561348422601
ag6
(g21
S'\x00\x00\x00\x00'
p591
tp592
Rp593
ag6
(g21
S'\x9b\xaa\x82@'
p594
tp595
Rp596
aaa(lp597
(g426
I12
tp598
a(lp599
g6
(g10
S'\xce\x01\x8b>9\xe6\xe4?'
p600
tp601
Rp602
ag6
(g10
S'\xbb\xbe\xa5gG\x15\xe5?'
p603
tp604
Rp605
aF0.48197861470194575
ag6
(g21
S'\x00\x00\x00\x00'
p606
tp607
Rp608
ag6
(g21
S'\x8c\xdbK@'
p609
tp610
Rp611
aaa(lp612
(g426
I13
tp613
a(lp614
g6
(g10
S'F%\xb5\xcagG\xef?'
p615
tp616
Rp617
ag6
(g10
S'o\xab\x03\xb2K]\xf8?'
p618
tp619
Rp620
aF0.7532174583316933
ag6
(g21
S'\x00\x00\x00\x00'
p621
tp622
Rp623
ag6
(g21
S'\xc6\x0c\x95@'
p624
tp625
Rp626
aaa(lp627
(g426
I14
tp628
a(lp629
g6
(g10
S'\x00\x00\x00\x00\x00\x00\x00\x00'
p630
tp631
Rp632
ag6
(g10
S'\x00\x00\x00\x00\x00\x00\x00\x00'
p633
tp634
Rp635
aF0.0
ag6
(g21
S'\x00\x00\x00\x00'
p636
tp637
Rp638
ag638
aaa(lp639
(g426
I15
tp640
a(lp641
g6
(g10
S'\xb3\xdc\xf0\x15\xef;\xe4?'
p642
tp643
Rp644
ag6
(g10
S'\xa8\x86A|Fw\xe1?'
p645
tp646
Rp647
aF0.38208148267092573
ag6
(g21
S'\x00\x00\x00\x00'
p648
tp649
Rp650
ag6
(g21
S'v\\\x1b@'
p651
tp652
Rp653
aaa(lp654
(Vdense_1
p655
I0
tp656
a(lp657
g6
(g10
S'\x14_\x9d\xf3q#\xe4?'
p658
tp659
Rp660
ag6
(g10
S'5\x06~\xa46u\x05@'
p661
tp662
Rp663
aF1.5120122059143726
ag6
(g21
S'\x00\x00\x00\x00'
p664
tp665
Rp666
ag6
(g21
S'|\xbd9A'
p667
tp668
Rp669
aaa(lp670
(g655
I1
tp671
a(lp672
g6
(g10
S'\xd4\x06:m\xa0Ku>'
p673
tp674
Rp675
ag6
(g10
S'\xd5\xe0\xe6g\xfd\xf2\xf9='
p676
tp677
Rp678
aF1.9432034427070003e-05
ag6
(g21
S'\x00\x00\x00\x00'
p679
tp680
Rp681
ag6
(g21
S'\xe8\xf8\x9b;'
p682
tp683
Rp684
aaa(lp685
(g655
I2
tp686
a(lp687
g6
(g10
S'\xf3Ney_\xd3\xf6?'
p688
tp689
Rp690
ag6
(g10
S'",ISj\xf4\x18@'
p691
tp692
Rp693
aF2.050240428046536
ag6
(g21
S'\x00\x00\x00\x00'
p694
tp695
Rp696
ag6
(g21
S'\x0c\x17;A'
p697
tp698
Rp699
aaa(lp700
(g655
I3
tp701
a(lp702
g6
(g10
S'mu\xf1O\x03S\xdb?'
p703
tp704
Rp705
ag6
(g10
S'\x91+\xe46p\xec\xf5?'
p706
tp707
Rp708
aF1.0899288883936138
ag6
(g21
S'\x00\x00\x00\x00'
p709
tp710
Rp711
ag6
(g21
S'\xa7\xd4\x1dA'
p712
tp713
Rp714
aaa(lp715
(g655
I4
tp716
a(lp717
g6
(g10
S'\xa8%\x85u\x04\xd3\xe2?'
p718
tp719
Rp720
ag6
(g10
S'h\xf7sj\xcb\xed\xfb?'
p721
tp722
Rp723
aF1.1830074868694969
ag6
(g21
S'\x00\x00\x00\x00'
p724
tp725
Rp726
ag6
(g21
S'\x10\xaa#A'
p727
tp728
Rp729
aaa(lp730
(g655
I5
tp731
a(lp732
g6
(g10
S'\xffe\xb4:\xe7\xab\xe4?'
p733
tp734
Rp735
ag6
(g10
S'\xab\x8d\xff\\V\x8d\x00@'
p736
tp737
Rp738
aF1.285191304170924
ag6
(g21
S'\x00\x00\x00\x00'
p739
tp740
Rp741
ag6
(g21
S'3\xdd5A'
p742
tp743
Rp744
aaa(lp745
(g655
I6
tp746
a(lp747
g6
(g10
S'\x98\x0e\x8f\xe0\xdf\xdb\xf4?'
p748
tp749
Rp750
ag6
(g10
S'@_E\xf5\xdc}\x1d@'
p751
tp752
Rp753
aF2.3818754939809463
ag6
(g21
S'\x00\x00\x00\x00'
p754
tp755
Rp756
ag6
(g21
S'\xb2]NA'
p757
tp758
Rp759
aaa(lp760
(g655
I7
tp761
a(lp762
g6
(g10
S'9\x1c\xab\xe1\xac \xe7?'
p763
tp764
Rp765
ag6
(g10
S'\xc69\xe6Q\x8a=\x00@'
p766
tp767
Rp768
aF1.2278834520583886
ag6
(g21
S'\x00\x00\x00\x00'
p769
tp770
Rp771
ag6
(g21
S'h(\x02A'
p772
tp773
Rp774
aaa(lp775
(g655
I8
tp776
a(lp777
g6
(g10
S'\x00\x00\x00\x00\x00\x00\x00\x00'
p778
tp779
Rp780
ag6
(g10
S'\x00\x00\x00\x00\x00\x00\x00\x00'
p781
tp782
Rp783
aF0.0
ag6
(g21
S'\x00\x00\x00\x00'
p784
tp785
Rp786
ag786
aaa(lp787
(g655
I9
tp788
a(lp789
g6
(g10
S'\xda\x10l\x88o\xd4\xfa?'
p790
tp791
Rp792
ag6
(g10
S'3\xac\x85\xed\xfc{ @'
p793
tp794
Rp795
aF2.330298390290868
ag6
(g21
S'\x00\x00\x00\x00'
p796
tp797
Rp798
ag6
(g21
S'4\xbfWA'
p799
tp800
Rp801
aaa(lp802
(g655
I10
tp803
a(lp804
g6
(g10
S'<T-`\xee\x0c\xde?'
p805
tp806
Rp807
ag6
(g10
S'\x18\xdf\x96>\xc9\xe3\xf8?'
p808
tp809
Rp810
aF1.1554846305882203
ag6
(g21
S'\x00\x00\x00\x00'
p811
tp812
Rp813
ag6
(g21
S'H1.A'
p814
tp815
Rp816
aaa(lp817
(g655
I11
tp818
a(lp819
g6
(g10
S'\xe0\x02\x9c\x10\xdb\xfd\xd0?'
p820
tp821
Rp822
ag6
(g10
S'\x1fw(qh\xa8\xec?'
p823
tp824
Rp825
aF0.9083339059151733
ag6
(g21
S'\x00\x00\x00\x00'
p826
tp827
Rp828
ag6
(g21
S'i\xbb5A'
p829
tp830
Rp831
aaa(lp832
(g655
I12
tp833
a(lp834
g6
(g10
S'\xb7=\xec\x97\x00[\xfd?'
p835
tp836
Rp837
ag6
(g10
S"KZ\xbc>%R'@"
p838
tp839
Rp840
aF2.879974410614279
ag6
(g21
S'\x00\x00\x00\x00'
p841
tp842
Rp843
ag6
(g21
S'\xf5-\x8eA'
p844
tp845
Rp846
aaa(lp847
(g655
I13
tp848
a(lp849
g6
(g10
S'\xc4\xdcE\x1f\x14\x1b\xf5?'
p850
tp851
Rp852
ag6
(g10
S'C\x11\x7f|\xc2\xf8\x18@'
p853
tp854
Rp855
aF2.1219980232671958
ag6
(g21
S'\x00\x00\x00\x00'
p856
tp857
Rp858
ag6
(g21
S'\xff\x0eSA'
p859
tp860
Rp861
aaa(lp862
(g655
I14
tp863
a(lp864
g6
(g10
S'\x14z\x06\xda\xa2\x0b\xd2?'
p865
tp866
Rp867
ag6
(g10
S'w[\xc1\x8f \x84\xe3?'
p868
tp869
Rp870
aF0.7282700362927519
ag6
(g21
S'\x00\x00\x00\x00'
p871
tp872
Rp873
ag6
(g21
S'\xbd\x8c\xfd@'
p874
tp875
Rp876
aaa(lp877
(g655
I15
tp878
a(lp879
g6
(g10
S'\xc4R\xbb\x04\xf8\xbe\xd6?'
p880
tp881
Rp882
ag6
(g10
S'y5\\\xfb_7\xf2?'
p883
tp884
Rp885
aF1.006084478903785
ag6
(g21
S'\x00\x00\x00\x00'
p886
tp887
Rp888
ag6
(g21
S'\x8c[\x1eA'
p889
tp890
Rp891
aaa(lp892
(g655
I16
tp893
a(lp894
g6
(g10
S'0\x0b5\xa3_u\xe9?'
p895
tp896
Rp897
ag6
(g10
S'\x86\x8d\xfaN\xfeb\t@'
p898
tp899
Rp900
aF1.5938608890866042
ag6
(g21
S'\x00\x00\x00\x00'
p901
tp902
Rp903
ag6
(g21
S'\xd790A'
p904
tp905
Rp906
aaa(lp907
(g655
I17
tp908
a(lp909
g6
(g10
S"U8'&\xb4\xec\x01@"
p910
tp911
Rp912
ag6
(g10
S'\xe3\xe7\x19\xa3\xbb\xb88@'
p913
tp914
Rp915
aF4.438628551888769
ag6
(g21
S'\x00\x00\x00\x00'
p916
tp917
Rp918
ag6
(g21
S'\x7f\xf5\xcbA'
p919
tp920
Rp921
aaa(lp922
(g655
I18
tp923
a(lp924
g6
(g10
S'|\x1b\xfb\x0cX\xc3\xe6?'
p925
tp926
Rp927
ag6
(g10
S'\x16lxj\xf5\xb9\t@'
p928
tp929
Rp930
aF1.6461431968680826
ag6
(g21
S'\x00\x00\x00\x00'
p931
tp932
Rp933
ag6
(g21
S'\x1d7TA'
p934
tp935
Rp936
aaa(lp937
(g655
I19
tp938
a(lp939
g6
(g10
S'\x1e"w\xd2\x9ba\xe1?'
p940
tp941
Rp942
ag6
(g10
S'}\x96\xdf\xd0\x1f\x06\xfb?'
p943
tp944
Rp945
aF1.1806637268537108
ag6
(g21
S'\x00\x00\x00\x00'
p946
tp947
Rp948
ag6
(g21
S'0a\rA'
p949
tp950
Rp951
aaa(lp952
(g655
I20
tp953
a(lp954
g6
(g10
S'\x7f/\xec\xd2\x08\xd5\xca?'
p955
tp956
Rp957
ag6
(g10
S'\xd8\xd73\xbe\xa4\r\xe6?'
p958
tp959
Rp960
aF0.8032572972886936
ag6
(g21
S'\x00\x00\x00\x00'
p961
tp962
Rp963
ag6
(g21
S'\xde\xb3\x1fA'
p964
tp965
Rp966
aaa(lp967
(g655
I21
tp968
a(lp969
g6
(g10
S'\xd7\x82vt\xa9\x89\xe6>'
p970
tp971
Rp972
ag6
(g10
S'\xd3D\xb3\xdf\x98\xa3\xb4>'
p973
tp974
Rp975
aF0.0011090842321237649
ag6
(g21
S'\x00\x00\x00\x00'
p976
tp977
Rp978
ag6
(g21
S'\xafCA>'
p979
tp980
Rp981
aaa(lp982
(g655
I22
tp983
a(lp984
g6
(g10
S'`\x84\xd2\xba#\xc9\xf0?'
p985
tp986
Rp987
ag6
(g10
S'6\xd9\x07tc\x89\x17@'
p988
tp989
Rp990
aF2.187131530906782
ag6
(g21
S'\x00\x00\x00\x00'
p991
tp992
Rp993
ag6
(g21
S'B\x8dUA'
p994
tp995
Rp996
aaa(lp997
(g655
I23
tp998
a(lp999
g6
(g10
S'\x01U\xb3R\x8c\xa0\xda?'
p1000
tp1001
Rp1002
ag6
(g10
S'\xc7\xba\xea\x96\xb0>\xe7?'
p1003
tp1004
Rp1005
aF0.7438452300936964
ag6
(g21
S'\x00\x00\x00\x00'
p1006
tp1007
Rp1008
ag6
(g21
S'\xb6\x86\x88@'
p1009
tp1010
Rp1011
aaa(lp1012
(g655
I24
tp1013
a(lp1014
g6
(g10
S's\x88#{Hy\xe6?'
p1015
tp1016
Rp1017
ag6
(g10
S':\xe0\xfe\xf6\xd3-\x03@'
p1018
tp1019
Rp1020
aF1.3799074376546219
ag6
(g21
S'\x00\x00\x00\x00'
p1021
tp1022
Rp1023
ag6
(g21
S'\xa6\xd9$A'
p1024
tp1025
Rp1026
aaa(lp1027
(g655
I25
tp1028
a(lp1029
g6
(g10
S'\x9a\x8eL\xcb\xd3z\xec?'
p1030
tp1031
Rp1032
ag6
(g10
S'$\x1e\xf8\x9b\x91\x92\x0e@'
p1033
tp1034
Rp1035
aF1.740539639442174
ag6
(g21
S'\x00\x00\x00\x00'
p1036
tp1037
Rp1038
ag6
(g21
S'AZcA'
p1039
tp1040
Rp1041
aaa(lp1042
(g655
I26
tp1043
a(lp1044
g6
(g10
S'\xdb\xb26\xfb\xf6@\xcf?'
p1045
tp1046
Rp1047
ag6
(g10
S'p\x87V\x97\xbb\x99\xe2?'
p1048
tp1049
Rp1050
aF0.7222514703369418
ag6
(g21
S'\x00\x00\x00\x00'
p1051
tp1052
Rp1053
ag6
(g21
S'O\xe8\xf0@'
p1054
tp1055
Rp1056
aaa(lp1057
(g655
I27
tp1058
a(lp1059
g6
(g10
S',\xed\xf2\x10\x81\xd6\xf3?'
p1060
tp1061
Rp1062
ag6
(g10
S'\xa5+\xc2\xe5S\x89#@'
p1063
tp1064
Rp1065
aF2.8689619423050843
ag6
(g21
S'\x00\x00\x00\x00'
p1066
tp1067
Rp1068
ag6
(g21
S'\xba\xea\x87A'
p1069
tp1070
Rp1071
aaa(lp1072
(g655
I28
tp1073
a(lp1074
g6
(g10
S'\xb7QSoF\x98\xe6?'
p1075
tp1076
Rp1077
ag6
(g10
S'4\xbb\x86j\x93\x93\x00@'
p1078
tp1079
Rp1080
aF1.2543914332307717
ag6
(g21
S'\x00\x00\x00\x00'
p1081
tp1082
Rp1083
ag6
(g21
S'n\x14\x01A'
p1084
tp1085
Rp1086
aaa(lp1087
(g655
I29
tp1088
a(lp1089
g6
(g10
S'\x00\x00\x00\x00\x00\x00\x00\x00'
p1090
tp1091
Rp1092
ag6
(g10
S'\x00\x00\x00\x00\x00\x00\x00\x00'
p1093
tp1094
Rp1095
aF0.0
ag6
(g21
S'\x00\x00\x00\x00'
p1096
tp1097
Rp1098
ag1098
aaa(lp1099
(g655
I30
tp1100
a(lp1101
g6
(g10
S'q9l\xae2z\xe2?'
p1102
tp1103
Rp1104
ag6
(g10
S'?x?8\xdf\xc3\xf7?'
p1105
tp1106
Rp1107
aF1.0732707969242707
ag6
(g21
S'\x00\x00\x00\x00'
p1108
tp1109
Rp1110
ag6
(g21
S'9b\xd7@'
p1111
tp1112
Rp1113
aaa(lp1114
(g655
I31
tp1115
a(lp1116
g6
(g10
S'Me\xbe,\xa4\x9a\xd9?'
p1117
tp1118
Rp1119
ag6
(g10
S'D\xcc\xfcD\x1cB\xfb?'
p1120
tp1121
Rp1122
aF1.2424127301286085
ag6
(g21
S'\x00\x00\x00\x00'
p1123
tp1124
Rp1125
ag6
(g21
S'\x14\xa9WA'
p1126
tp1127
Rp1128
aaa(lp1129
(g655
I32
tp1130
a(lp1131
g6
(g10
S'\x00\x00\x00\x00\x00\x00\x00\x00'
p1132
tp1133
Rp1134
ag6
(g10
S'\x00\x00\x00\x00\x00\x00\x00\x00'
p1135
tp1136
Rp1137
aF0.0
ag6
(g21
S'\x00\x00\x00\x00'
p1138
tp1139
Rp1140
ag1140
aaa(lp1141
(g655
I33
tp1142
a(lp1143
g6
(g10
S'j\xf3\xb3\x1cx\xde\xd6?'
p1144
tp1145
Rp1146
ag6
(g10
S'L\xe3E\x0c\x17F\xef?'
p1147
tp1148
Rp1149
aF0.921749584637176
ag6
(g21
S'\x00\x00\x00\x00'
p1150
tp1151
Rp1152
ag6
(g21
S'&\x0c=A'
p1153
tp1154
Rp1155
aaa(lp1156
(g655
I34
tp1157
a(lp1158
g6
(g10
S'V\xff\xc6J\xc2b\xe8?'
p1159
tp1160
Rp1161
ag6
(g10
S'\x9d.`\xfe\xf5\x8f\x0f@'
p1162
tp1163
Rp1164
aF1.8342749995515628
ag6
(g21
S'\x00\x00\x00\x00'
p1165
tp1166
Rp1167
ag6
(g21
S'\x14\x88VA'
p1168
tp1169
Rp1170
aaa(lp1171
(g655
I35
tp1172
a(lp1173
g6
(g10
S'\xd5>\xc9\xeb\x8b\x96\x05@'
p1174
tp1175
Rp1176
ag6
(g10
S'\xfcH\x98>\x98\xe33@'
p1177
tp1178
Rp1179
aF3.550646510031462
ag6
(g21
S'\x00\x00\x00\x00'
p1180
tp1181
Rp1182
ag6
(g21
S'wH\x9bA'
p1183
tp1184
Rp1185
aaa(lp1186
(g655
I36
tp1187
a(lp1188
g6
(g10
S"a/'\xb3\xd7$\xde?"
p1189
tp1190
Rp1191
ag6
(g10
S'\xdf\x1a\xcc\xbe\xb5V\xf2?'
p1192
tp1193
Rp1194
aF0.961420642210902
ag6
(g21
S'\x00\x00\x00\x00'
p1195
tp1196
Rp1197
ag6
(g21
S'\xdc\xf8\x12A'
p1198
tp1199
Rp1200
aaa(lp1201
(g655
I37
tp1202
a(lp1203
g6
(g10
S'\x002n\xae\xfff\xe0?'
p1204
tp1205
Rp1206
ag6
(g10
S'\t\xfa\x83]\xd7\x9f\xfa?'
p1207
tp1208
Rp1209
aF1.1837620431804148
ag6
(g21
S'\x00\x00\x00\x00'
p1210
tp1211
Rp1212
ag6
(g21
S'\xe0\xadFA'
p1213
tp1214
Rp1215
aaa(lp1216
(g655
I38
tp1217
a(lp1218
g6
(g10
S'\xeb\x1d\xdcH\xc7\x0e\xf3?'
p1219
tp1220
Rp1221
ag6
(g10
S'\xb1\xc5\xdbE\x7f\x95\x18@'
p1222
tp1223
Rp1224
aF2.174225149672874
ag6
(g21
S'\x00\x00\x00\x00'
p1225
tp1226
Rp1227
ag6
(g21
S'j\x9dAA'
p1228
tp1229
Rp1230
aaa(lp1231
(g655
I39
tp1232
a(lp1233
g6
(g10
S'\xaf\x9af\x0f?\x13\xf3?'
p1234
tp1235
Rp1236
ag6
(g10
S'\xf6:\x92\xd89\x83\x15@'
p1237
tp1238
Rp1239
aF1.9891737852943228
ag6
(g21
S'\x00\x00\x00\x00'
p1240
tp1241
Rp1242
ag6
(g21
S'<T\\A'
p1243
tp1244
Rp1245
aaa(lp1246
(g655
I40
tp1247
a(lp1248
g6
(g10
S'MY\xe6\x8a\xb2~\xfa?'
p1249
tp1250
Rp1251
ag6
(g10
S'\x88\\\xd7}o]#@'
p1252
tp1253
Rp1254
aF2.634460187954897
ag6
(g21
S'\x00\x00\x00\x00'
p1255
tp1256
Rp1257
ag6
(g21
S'\xaedqA'
p1258
tp1259
Rp1260
aaa(lp1261
(g655
I41
tp1262
a(lp1263
g6
(g10
S'\x86{\xcdb\x9f\xd1\xd7?'
p1264
tp1265
Rp1266
ag6
(g10
S'\xd0\xdd\xbce\x19\xaa\xf3?'
p1267
tp1268
Rp1269
aF1.044278747916729
ag6
(g21
S'\x00\x00\x00\x00'
p1270
tp1271
Rp1272
ag6
(g21
S'\x00eOA'
p1273
tp1274
Rp1275
aaa(lp1276
(g655
I42
tp1277
a(lp1278
g6
(g10
S'nO\x07\xc6\xac\xa1\xf6?'
p1279
tp1280
Rp1281
ag6
(g10
S'\x1d\xaa\xd6\xdac\xc5\x1c@'
p1282
tp1283
Rp1284
aF2.2786035982288113
ag6
(g21
S'\x00\x00\x00\x00'
p1285
tp1286
Rp1287
ag6
(g21
S'\xde\xcdbA'
p1288
tp1289
Rp1290
aaa(lp1291
(g655
I43
tp1292
a(lp1293
g6
(g10
S'\x07\xc0\xda\xce\xb5\x16\xe7?'
p1294
tp1295
Rp1296
ag6
(g10
S'\xf2\n\x88\x8ec\xda\x05@'
p1297
tp1298
Rp1299
aF1.4869569124822897
ag6
(g21
S'\x00\x00\x00\x00'
p1300
tp1301
Rp1302
ag6
(g21
S'\x17u9A'
p1303
tp1304
Rp1305
aaa(lp1306
(g655
I44
tp1307
a(lp1308
g6
(g10
S'\xa4\xaa\x9a\x86\x9b\n\xf7?'
p1309
tp1310
Rp1311
ag6
(g10
S'\x80,x\xe6\x9d\xf3\x1a@'
p1312
tp1313
Rp1314
aF2.159640851350281
ag6
(g21
S'\x00\x00\x00\x00'
p1315
tp1316
Rp1317
ag6
(g21
S'J\x15\\A'
p1318
tp1319
Rp1320
aaa(lp1321
(g655
I45
tp1322
a(lp1323
g6
(g10
S'\x18\xff\x0f)xx\xe1?'
p1324
tp1325
Rp1326
ag6
(g10
S'\x0e\xf1\xc8Vi\xd4\xfd?'
p1327
tp1328
Rp1329
aF1.2515153245686514
ag6
(g21
S'\x00\x00\x00\x00'
p1330
tp1331
Rp1332
ag6
(g21
S'a\x06\rA'
p1333
tp1334
Rp1335
aaa(lp1336
(g655
I46
tp1337
a(lp1338
g6
(g10
S'gEvf\xaf\xf9\xe5?'
p1339
tp1340
Rp1341
ag6
(g10
S'jd*\xe3\x87\xdd\xfe?'
p1342
tp1343
Rp1344
aF1.2072645739835683
ag6
(g21
S'\x00\x00\x00\x00'
p1345
tp1346
Rp1347
ag6
(g21
S'\x8bd\x0cA'
p1348
tp1349
Rp1350
aaa(lp1351
(g655
I47
tp1352
a(lp1353
g6
(g10
S'!\xdaK\x1ac\xc7\xe7?'
p1354
tp1355
Rp1356
ag6
(g10
S'H\x95\xc0\xb0o\xdd\x01@'
p1357
tp1358
Rp1359
aF1.2965113028016868
ag6
(g21
S'\x00\x00\x00\x00'
p1360
tp1361
Rp1362
ag6
(g21
S'$\x041A'
p1363
tp1364
Rp1365
aaa(lp1366
(g655
I48
tp1367
a(lp1368
g6
(g10
S'\xc9\xdb\x92\x8d\xfc\x12\xe7?'
p1369
tp1370
Rp1371
ag6
(g10
S'\xa4\xab\x13\x90e\xb7\x04@'
p1372
tp1373
Rp1374
aF1.4386141134971
ag6
(g21
S'\x00\x00\x00\x00'
p1375
tp1376
Rp1377
ag6
(g21
S'\xba\r7A'
p1378
tp1379
Rp1380
aaa(lp1381
(g655
I49
tp1382
a(lp1383
g6
(g10
S'<\x9d6/\xe1\x86\xe2?'
p1384
tp1385
Rp1386
ag6
(g10
S'\xddT3\x15,\xdf\xfe?'
p1387
tp1388
Rp1389
aF1.2626500554367872
ag6
(g21
S'\x00\x00\x00\x00'
p1390
tp1391
Rp1392
ag6
(g21
S'Y\x88\x10A'
p1393
tp1394
Rp1395
aaa(lp1396
(g655
I50
tp1397
a(lp1398
g6
(g10
S'\r\xd6\xc0\xb0\xfe"\xe7?'
p1399
tp1400
Rp1401
ag6
(g10
S'Q;$\xfb\xbd\xbc\xff?'
p1402
tp1403
Rp1404
aF1.2086434716147418
ag6
(g21
S'\x00\x00\x00\x00'
p1405
tp1406
Rp1407
ag6
(g21
S'N\xf4\xf1@'
p1408
tp1409
Rp1410
aaa(lp1411
(g655
I51
tp1412
a(lp1413
g6
(g10
S'\x00\x00\x00\x00\x00\x00\x00\x00'
p1414
tp1415
Rp1416
ag6
(g10
S'\x00\x00\x00\x00\x00\x00\x00\x00'
p1417
tp1418
Rp1419
aF0.0
ag6
(g21
S'\x00\x00\x00\x00'
p1420
tp1421
Rp1422
ag1422
aaa(lp1423
(g655
I52
tp1424
a(lp1425
g6
(g10
S'\x13\xd8\xf0vq\xf6\xc1?'
p1426
tp1427
Rp1428
ag6
(g10
S'\xbec\\:\x1b\xdb\xd3?'
p1429
tp1430
Rp1431
aF0.5390312993505367
ag6
(g21
S'\x00\x00\x00\x00'
p1432
tp1433
Rp1434
ag6
(g21
S'\xfc\x1f\xf9@'
p1435
tp1436
Rp1437
aaa(lp1438
(g655
I53
tp1439
a(lp1440
g6
(g10
S'\xd8\xfc\xa7\x03\x9e\xab\xf1?'
p1441
tp1442
Rp1443
ag6
(g10
S'-h/r@j\x19@'
p1444
tp1445
Rp1446
aF2.265847498820655
ag6
(g21
S'\x00\x00\x00\x00'
p1447
tp1448
Rp1449
ag6
(g21
S'm\x97@A'
p1450
tp1451
Rp1452
aaa(lp1453
(g655
I54
tp1454
a(lp1455
g6
(g10
S'\x05qG\x10 \xfc\xc0?'
p1456
tp1457
Rp1458
ag6
(g10
S'G\x0e\xac\x1e\x1cO\xdf?'
p1459
tp1460
Rp1461
aF0.686728270224073
ag6
(g21
S'\x00\x00\x00\x00'
p1462
tp1463
Rp1464
ag6
(g21
S'\xd7@&A'
p1465
tp1466
Rp1467
aaa(lp1468
(g655
I55
tp1469
a(lp1470
g6
(g10
S'\xd1\x98\x87,<\x9b\xe1?'
p1471
tp1472
Rp1473
ag6
(g10
S'&\xa3\xe4\x80\x1aV\xf6?'
p1474
tp1475
Rp1476
aF1.0456107205067815
ag6
(g21
S'\x00\x00\x00\x00'
p1477
tp1478
Rp1479
ag6
(g21
S'd#\x07A'
p1480
tp1481
Rp1482
aaa(lp1483
(g655
I56
tp1484
a(lp1485
g6
(g10
S'$\x0f\xd0\x19\x89\x87\xf5?'
p1486
tp1487
Rp1488
ag6
(g10
S'X\xcbB\xc0\xf2\xb5\x18@'
p1489
tp1490
Rp1491
aF2.0897540769498044
ag6
(g21
S'\x00\x00\x00\x00'
p1492
tp1493
Rp1494
ag6
(g21
S'68PA'
p1495
tp1496
Rp1497
aaa(lp1498
(g655
I57
tp1499
a(lp1500
g6
(g10
S'\x00\xa1g-\x19\xc7\xc3?'
p1501
tp1502
Rp1503
ag6
(g10
S'n\xa1\x0e\xbaS\x17\xd1?'
p1504
tp1505
Rp1506
aF0.4931271125291053
ag6
(g21
S'\x00\x00\x00\x00'
p1507
tp1508
Rp1509
ag6
(g21
S'\xb9\xda\xdb@'
p1510
tp1511
Rp1512
aaa(lp1513
(g655
I58
tp1514
a(lp1515
g6
(g10
S'Yz#\xfa^R\xe2?'
p1516
tp1517
Rp1518
ag6
(g10
S'=k\x80\x9f\xf26\xfb?'
p1519
tp1520
Rp1521
aF1.171791656819504
ag6
(g21
S'\x00\x00\x00\x00'
p1522
tp1523
Rp1524
ag6
(g21
S'\xde\x05\x0cA'
p1525
tp1526
Rp1527
aaa(lp1528
(g655
I59
tp1529
a(lp1530
g6
(g10
S'\xd5\xef\xdc\xd0p}\xf5?'
p1531
tp1532
Rp1533
ag6
(g10
S'JwR_\x96\x9f\x18@'
p1534
tp1535
Rp1536
aF2.0861116572051035
ag6
(g21
S'\x00\x00\x00\x00'
p1537
tp1538
Rp1539
ag6
(g21
S'\xdcLOA'
p1540
tp1541
Rp1542
aaa(lp1543
(g655
I60
tp1544
a(lp1545
g6
(g10
S'ec`\x16\xf1\xb2\xfa?'
p1546
tp1547
Rp1548
ag6
(g10
S'\xab\x03\xa6\x85\xab_!@'
p1549
tp1550
Rp1551
aF2.4294730595340974
ag6
(g21
S'\x00\x00\x00\x00'
p1552
tp1553
Rp1554
ag6
(g21
S'\xd1\xa6gA'
p1555
tp1556
Rp1557
aaa(lp1558
(g655
I61
tp1559
a(lp1560
g6
(g10
S'\x08\xed\xa8\xfc\xd4\xa8\xff?'
p1561
tp1562
Rp1563
ag6
(g10
S'\xad\xd5\xf8Bqr(@'
p1564
tp1565
Rp1566
aF2.882393535753111
ag6
(g21
S'\x00\x00\x00\x00'
p1567
tp1568
Rp1569
ag6
(g21
S'\x01\xdfeA'
p1570
tp1571
Rp1572
aaa(lp1573
(g655
I62
tp1574
a(lp1575
g6
(g10
S'\xe7|j$\xe7\xdf\xf2?'
p1576
tp1577
Rp1578
ag6
(g10
S'G3O[\xd8O\x11@'
p1579
tp1580
Rp1581
aF1.7135831191738093
ag6
(g21
S'\x00\x00\x00\x00'
p1582
tp1583
Rp1584
ag6
(g21
S'\xc5\x0c8A'
p1585
tp1586
Rp1587
aaa(lp1588
(g655
I63
tp1589
a(lp1590
g6
(g10
S"\rh'\x04\xcb\xab\xe3?"
p1591
tp1592
Rp1593
ag6
(g10
S'J\x8b\t\x8b\xc2#\x02@'
p1594
tp1595
Rp1596
aF1.37461965923008
ag6
(g21
S'\x00\x00\x00\x00'
p1597
tp1598
Rp1599
ag6
(g21
S'\xfaf(A'
p1600
tp1601
Rp1602
aaa(lp1603
(g655
I64
tp1604
a(lp1605
g6
(g10
S'[\x01McE)\xe6?'
p1606
tp1607
Rp1608
ag6
(g10
S'\x08\x9b\x98Bz\xf1\x10@'
p1609
tp1610
Rp1611
aF1.9380941949949828
ag6
(g21
S'\x00\x00\x00\x00'
p1612
tp1613
Rp1614
ag6
(g21
S'\xb6\xca\x1dA'
p1615
tp1616
Rp1617
aaa(lp1618
(g655
I65
tp1619
a(lp1620
g6
(g10
S'\x12\xb1Z\xe3u\xc3\xc9?'
p1621
tp1622
Rp1623
ag6
(g10
S'\xa1\x16\xedH\xb1\xa3\xcb?'
p1624
tp1625
Rp1626
aF0.41883215593245465
ag6
(g21
S'\x00\x00\x00\x00'
p1627
tp1628
Rp1629
ag6
(g21
S'QNm@'
p1630
tp1631
Rp1632
aaa(lp1633
(g655
I66
tp1634
a(lp1635
g6
(g10
S'\x00\x00\x00\x00\x00\x00\x00\x00'
p1636
tp1637
Rp1638
ag6
(g10
S'\x00\x00\x00\x00\x00\x00\x00\x00'
p1639
tp1640
Rp1641
aF0.0
ag6
(g21
S'\x00\x00\x00\x00'
p1642
tp1643
Rp1644
ag1644
aaa(lp1645
(g655
I67
tp1646
a(lp1647
g6
(g10
S'\x8f\xb7@\x82\xe2q\xb7>'
p1648
tp1649
Rp1650
ag6
(g10
S'\x82\xb2\xe7E\xe0\xecp>'
p1651
tp1652
Rp1653
aF0.0002510969781318515
ag6
(g21
S'\x00\x00\x00\x00'
p1654
tp1655
Rp1656
ag6
(g21
S'\xfe"[='
p1657
tp1658
Rp1659
aaa(lp1660
(g655
I68
tp1661
a(lp1662
g6
(g10
S'O+a\xe06\xf2\xfa?'
p1663
tp1664
Rp1665
ag6
(g10
S'\x1e\x8dj\xfd\xee}\x1e@'
p1666
tp1667
Rp1668
aF2.1878467554756145
ag6
(g21
S'\x00\x00\x00\x00'
p1669
tp1670
Rp1671
ag6
(g21
S'\x15YSA'
p1672
tp1673
Rp1674
aaa(lp1675
(g655
I69
tp1676
a(lp1677
g6
(g10
S'\xc5<B\x16{3\x01@'
p1678
tp1679
Rp1680
ag6
(g10
S'\x1a@#\xad\xa3\xb7,@'
p1681
tp1682
Rp1683
aF3.120189260202457
ag6
(g21
S'\x00\x00\x00\x00'
p1684
tp1685
Rp1686
ag6
(g21
S'kPoA'
p1687
tp1688
Rp1689
aaa(lp1690
(g655
I70
tp1691
a(lp1692
g6
(g10
S'\xbe\xae\xdb\xb3\x1e\xea\xad?'
p1693
tp1694
Rp1695
ag6
(g10
S'\xb1\x9f\x84\xc01\xbf\xc2?'
p1696
tp1697
Rp1698
aF0.3782143508981538
ag6
(g21
S'\x00\x00\x00\x00'
p1699
tp1700
Rp1701
ag6
(g21
S'\x03\xcb\xed@'
p1702
tp1703
Rp1704
aaa(lp1705
(g655
I71
tp1706
a(lp1707
g6
(g10
S'<\xcd\xe2\xe5`\xb8\xd3?'
p1708
tp1709
Rp1710
ag6
(g10
S'\x16\x1a\xc7^\x8e0\xe9?'
p1711
tp1712
Rp1713
aF0.8320060373145214
ag6
(g21
S'\x00\x00\x00\x00'
p1714
tp1715
Rp1716
ag6
(g21
S'jm\x03A'
p1717
tp1718
Rp1719
aaa(lp1720
(g655
I72
tp1721
a(lp1722
g6
(g10
S'\xf7\x8b\xe5\xce\xb0\xe3\xdb?'
p1723
tp1724
Rp1725
ag6
(g10
S'!XG\xa4\xd7I\xf3?'
p1726
tp1727
Rp1728
aF1.0077849790991333
ag6
(g21
S'\x00\x00\x00\x00'
p1729
tp1730
Rp1731
ag6
(g21
S'f\xc6\xde@'
p1732
tp1733
Rp1734
aaa(lp1735
(g655
I73
tp1736
a(lp1737
g6
(g10
S'\xab\xd1t\x1b\xae$\xf7?'
p1738
tp1739
Rp1740
ag6
(g10
S'\x8e\xbbY\x12\x19\xc3\x16@'
p1741
tp1742
Rp1743
aF1.8969166982655588
ag6
(g21
S'\x00\x00\x00\x00'
p1744
tp1745
Rp1746
ag6
(g21
S'\xe1w7A'
p1747
tp1748
Rp1749
aaa(lp1750
(g655
I74
tp1751
a(lp1752
g6
(g10
S'P}\xc9l;\x08\xdb?'
p1753
tp1754
Rp1755
ag6
(g10
S'Q\x1a$h\xe3{\xf4?'
p1756
tp1757
Rp1758
aF1.0496873149920838
ag6
(g21
S'\x00\x00\x00\x00'
p1759
tp1760
Rp1761
ag6
(g21
S'\xfe\xea\x01A'
p1762
tp1763
Rp1764
aaa(lp1765
(g655
I75
tp1766
a(lp1767
g6
(g10
S'5\x05\xed\xa8])\xfb?'
p1768
tp1769
Rp1770
ag6
(g10
S'\xb6z\xf8F\xd7\x07!@'
p1771
tp1772
Rp1773
aF2.3734935540194737
ag6
(g21
S'\x00\x00\x00\x00'
p1774
tp1775
Rp1776
ag6
(g21
S'\x7f\xffgA'
p1777
tp1778
Rp1779
aaa(lp1780
(g655
I76
tp1781
a(lp1782
g6
(g10
S'\x00c\xc9\xf0\x0f\xaa\xe0?'
p1783
tp1784
Rp1785
ag6
(g10
S'Ie>|\xad\\\x03@'
p1786
tp1787
Rp1788
aF1.4659680278672782
ag6
(g21
S'\x00\x00\x00\x00'
p1789
tp1790
Rp1791
ag6
(g21
S'\x1a\x1cLA'
p1792
tp1793
Rp1794
aaa(lp1795
(g655
I77
tp1796
a(lp1797
g6
(g10
S'\xe7\xcf_~\xa4P\xec?'
p1798
tp1799
Rp1800
ag6
(g10
S'\xad\x0e\xd4\xf1\xffP\x10@'
p1801
tp1802
Rp1803
aF1.8155308694230097
ag6
(g21
S'\x00\x00\x00\x00'
p1804
tp1805
Rp1806
ag6
(g21
S';\xe2CA'
p1807
tp1808
Rp1809
aaa(lp1810
(g655
I78
tp1811
a(lp1812
g6
(g10
S'\xf5\xc0E\xf3\xb6\x80\xf0?'
p1813
tp1814
Rp1815
ag6
(g10
S'4\xb3\xf8wyp\x14@'
p1816
tp1817
Rp1818
aF2.0114676031403174
ag6
(g21
S'\x00\x00\x00\x00'
p1819
tp1820
Rp1821
ag6
(g21
S'\xc6sQA'
p1822
tp1823
Rp1824
aaa(lp1825
(g655
I79
tp1826
a(lp1827
g6
(g10
S'|\xaa`\xcc\xb3\xce\x96?'
p1828
tp1829
Rp1830
ag6
(g10
S'l\xb9\xfb\xb9\xf8z\x94?'
p1831
tp1832
Rp1833
aF0.139657681903058
ag6
(g21
S'\x00\x00\x00\x00'
p1834
tp1835
Rp1836
ag6
(g21
S'\xf7\x895@'
p1837
tp1838
Rp1839
aaa(lp1840
(g655
I80
tp1841
a(lp1842
g6
(g10
S'a\x9e\xe8\x16\xef\x8e\xfb?'
p1843
tp1844
Rp1845
ag6
(g10
S"%[\xa7'Wl$@"
p1846
tp1847
Rp1848
aF2.6916453182795337
ag6
(g21
S'\x00\x00\x00\x00'
p1849
tp1850
Rp1851
ag6
(g21
S'\xe2\xb8FA'
p1852
tp1853
Rp1854
aaa(lp1855
(g655
I81
tp1856
a(lp1857
g6
(g10
S'\xafJ\xef`\xb7\x8b\xf6?'
p1858
tp1859
Rp1860
ag6
(g10
S'}r\x15\xf8\xe0\x8e\x16@'
p1861
tp1862
Rp1863
aF1.9115276244156878
ag6
(g21
S'\x00\x00\x00\x00'
p1864
tp1865
Rp1866
ag6
(g21
S':\x03SA'
p1867
tp1868
Rp1869
aaa(lp1870
(g655
I82
tp1871
a(lp1872
g6
(g10
S'\x92\xaf9\xf2\x17\xd6\xe5?'
p1873
tp1874
Rp1875
ag6
(g10
S'Bm*\x85\xafx\x0e@'
p1876
tp1877
Rp1878
aF1.8284638278284404
ag6
(g21
S'\x00\x00\x00\x00'
p1879
tp1880
Rp1881
ag6
(g21
S'P\xddaA'
p1882
tp1883
Rp1884
aaa(lp1885
(g655
I83
tp1886
a(lp1887
g6
(g10
S'\xfa3\x11\xff\xf4\x0c\xe8?'
p1888
tp1889
Rp1890
ag6
(g10
S'\xb1\xf8\xc6Y\x19\x8d\t@'
p1891
tp1892
Rp1893
aF1.6214256093059076
ag6
(g21
S'\x00\x00\x00\x00'
p1894
tp1895
Rp1896
ag6
(g21
S'\\\xe7>A'
p1897
tp1898
Rp1899
aaa(lp1900
(Vdense_2
p1901
I0
tp1902
a(lp1903
g6
(g10
S'\x8b\x9d\xe6\xdf\xb0?\xb9?'
p1904
tp1905
Rp1906
ag6
(g10
S'-\x9b\xcc\x9d_\x1d\xb9?'
p1907
tp1908
Rp1909
aF0.2972826141785169
ag6
(g21
S'\x08r+ '
p1910
tp1911
Rp1912
ag6
(g21
S'\x00\x00\x80?'
p1913
tp1914
Rp1915
aaa(lp1916
(g1901
I1
tp1917
a(lp1918
g6
(g10
S'D\x94\x9c\x8f\xdb\xc0\xbc?'
p1919
tp1920
Rp1921
ag6
(g10
S'+\xdd\xc5\x08\xaf\x94\xbc?'
p1922
tp1923
Rp1924
aF0.31468786312910463
ag6
(g21
S'q\xf8\x9b '
p1925
tp1926
Rp1927
ag6
(g21
S'\xf8\xff\x7f?'
p1928
tp1929
Rp1930
aaa(lp1931
(g1901
I2
tp1932
a(lp1933
g6
(g10
S'\x1b\xd5\xb5\xa8\xbbE\xb9?'
p1934
tp1935
Rp1936
ag6
(g10
S'G\x18\x82n\xc0\xa1\xb8?'
p1937
tp1938
Rp1939
aF0.29406196430089093
ag6
(g21
S'\x1e\xab\x06&'
p1940
tp1941
Rp1942
ag6
(g21
S'\x00\x00\x80?'
p1943
tp1944
Rp1945
aaa(lp1946
(g1901
I3
tp1947
a(lp1948
g6
(g10
S'+ZPC\t:\xba?'
p1949
tp1950
Rp1951
ag6
(g10
S'\x9b\xac\xd4\xe4\xe4\xec\xb9?'
p1952
tp1953
Rp1954
aF0.3012894986115021
ag6
(g21
S'rk\x93&'
p1955
tp1956
Rp1957
ag6
(g21
S'\x00\x00\x80?'
p1958
tp1959
Rp1960
aaa(lp1961
(g1901
I4
tp1962
a(lp1963
g6
(g10
S'\x89\x07\x95F\x19\xfe\xb8?'
p1964
tp1965
Rp1966
ag6
(g10
S'\xd8\xf8&MW\xb1\xb8?'
p1967
tp1968
Rp1969
aF0.29483034348982584
ag6
(g21
S'\x16\xfd\x9b"'
p1970
tp1971
Rp1972
ag6
(g21
S'\x00\x00\x80?'
p1973
tp1974
Rp1975
aaa(lp1976
(g1901
I5
tp1977
a(lp1978
g6
(g10
S'<E\xa9\x88\x87\n\xb7?'
p1979
tp1980
Rp1981
ag6
(g10
S'\xdd\x07\x85\xb5^y\xb6?'
p1982
tp1983
Rp1984
aF0.28229180579042457
ag6
(g21
S"At\x91'"
p1985
tp1986
Rp1987
ag6
(g21
S'\x00\x00\x80?'
p1988
tp1989
Rp1990
aaa(lp1991
(g1901
I6
tp1992
a(lp1993
g6
(g10
S'\x04\x80\xbc\x84\nN\xb9?'
p1994
tp1995
Rp1996
ag6
(g10
S'\x81\xc2\x85,\x94\xf2\xb8?'
p1997
tp1998
Rp1999
aF0.296109299148456
ag6
(g21
S'\xfd:\x9a$'
p2000
tp2001
Rp2002
ag6
(g21
S'\x00\x00\x80?'
p2003
tp2004
Rp2005
aaa(lp2006
(g1901
I7
tp2007
a(lp2008
g6
(g10
S'\x11l\x1d\x8c|\xae\xba?'
p2009
tp2010
Rp2011
ag6
(g10
S'\x97I~23M\xba?'
p2012
tp2013
Rp2014
aF0.3031132421141286
ag6
(g21
S'v\xad\xbe!'
p2015
tp2016
Rp2017
ag6
(g21
S'\x00\x00\x80?'
p2018
tp2019
Rp2020
aaa(lp2021
(g1901
I8
tp2022
a(lp2023
g6
(g10
S'\xd9\x96\x03{\xef.\xb9?'
p2024
tp2025
Rp2026
ag6
(g10
S'\x19R\x7fV/\xc8\xb8?'
p2027
tp2028
Rp2029
aF0.29517358399965227
ag6
(g21
S'~\xea\xb3)'
p2030
tp2031
Rp2032
ag6
(g21
S'\x00\x00\x80?'
p2033
tp2034
Rp2035
aaa(lp2036
(g1901
I9
tp2037
a(lp2038
g6
(g10
S'Y\xb1\xaf[\x97K\xb9?'
p2039
tp2040
Rp2041
ag6
(g10
S'\xb4a\xcd\x9a\xf2\xd1\xb8?'
p2042
tp2043
Rp2044
aF0.2952798575172286
ag6
(g21
S"n\xe2O'"
p2045
tp2046
Rp2047
ag6
(g21
S'\xfc\xff\x7f?'
p2048
tp2049
Rp2050
aaatp2051
Rp2052
.