ccollections
OrderedDict
p0
((lp1
(lp2
(Vconv2d_1
p3
I0
tp4
a(lp5
cnumpy.core.multiarray
scalar
p6
(cnumpy
dtype
p7
(S'f8'
p8
I0
I1
tp9
Rp10
(I3
S'<'
p11
NNNI-1
I-1
I0
tp12
bS'\xcc\xfe\xb5E\xabV\xc6?'
p13
tp14
Rp15
ag6
(g10
S'\xad\xaf\xf8\x11~A\xa3?'
p16
tp17
Rp18
aF0.08456853564995835
ag6
(g7
(S'f4'
p19
I0
I1
tp20
Rp21
(I3
S'<'
p22
NNNI-1
I-1
I0
tp23
bS'4,@;'
p24
tp25
Rp26
ag6
(g21
S'<\x13\xfb>'
p27
tp28
Rp29
aaa(lp30
(g3
I1
tp31
a(lp32
g6
(g10
S"\xf0\xd5\x0br\xcd'\xcb?"
p33
tp34
Rp35
ag6
(g10
S'\x07p\xf9\xab\x9b\xcb\xa8?'
p36
tp37
Rp38
aF0.058479572945645555
ag6
(g21
S'Iyz<'
p39
tp40
Rp41
ag6
(g21
S'o\x05\xdb>'
p42
tp43
Rp44
aaa(lp45
(g3
I2
tp46
a(lp47
g6
(g10
S'I\xaf\xaf\xe8r^\xd1?'
p48
tp49
Rp50
ag6
(g10
S'\x86g\xc0\xcc\x913\xb5?'
p51
tp52
Rp53
aF0.09573802128066454
ag6
(g21
S'\xf2\xfe\xf7;'
p54
tp55
Rp56
ag6
(g21
S'\t! ?'
p57
tp58
Rp59
aaa(lp60
(g3
I3
tp61
a(lp62
g6
(g10
S'\x00\x00\x00\x00\x00\x00\x00\x00'
p63
tp64
Rp65
ag6
(g10
S'\x00\x00\x00\x00\x00\x00\x00\x00'
p66
tp67
Rp68
aF0.0
ag6
(g21
S'\x00\x00\x00\x00'
p69
tp70
Rp71
ag71
aaa(lp72
(g3
I4
tp73
a(lp74
g6
(g10
S'\x13\xa7\xb2\xf1\xf0j\xd2?'
p75
tp76
Rp77
ag6
(g10
S'\xf9\xb6\xe9>\xfds\xb6?'
p78
tp79
Rp80
aF0.06994036439640615
ag6
(g21
S'i$S='
p81
tp82
Rp83
ag6
(g21
S'\x96\xac\x15?'
p84
tp85
Rp86
aaa(lp87
(g3
I5
tp88
a(lp89
g6
(g10
S'5D\x9f~\xba;\xdb?'
p90
tp91
Rp92
ag6
(g10
S'\xaf\xbf\x0c3e\xf9\xc9?'
p93
tp94
Rp95
aF0.14783677689613386
ag6
(g21
S'\xe2\x97\x8d='
p96
tp97
Rp98
ag6
(g21
S'\xc5\xf9\xa4?'
p99
tp100
Rp101
aaa(lp102
(Vblock1_pool1
p103
I0
tp104
a(lp105
g6
(g10
S'\xa0\xff\xb5\xb5)\x08\xd5?'
p106
tp107
Rp108
ag6
(g10
S'\xd0\x88(/\xd0\xc7\xc0?'
p109
tp110
Rp111
aF0.15200194441765724
ag6
(g21
S'NA\xfe;'
p112
tp113
Rp114
ag6
(g21
S'\xa0*u?'
p115
tp116
Rp117
aaa(lp118
(g103
I1
tp119
a(lp120
g6
(g10
S'e\xa7\xf2\xb4@)\xda?'
p121
tp122
Rp123
ag6
(g10
S'L\r\xa4o<\xe7\xc6?'
p124
tp125
Rp126
aF0.10881449626000947
ag6
(g21
S'\x01{\x1a='
p127
tp128
Rp129
ag6
(g21
S'T\xcaT?'
p130
tp131
Rp132
aaa(lp133
(g103
I2
tp134
a(lp135
g6
(g10
S'\x11\xd0d\x90}9\xdf?'
p136
tp137
Rp138
ag6
(g10
S'\x0c\x1b\xd6QI\xe7\xd0?'
p139
tp140
Rp141
aF0.16151118310322088
ag6
(g21
S'e\xef\x94<'
p142
tp143
Rp144
ag6
(g21
S'\xe6q\x83?'
p145
tp146
Rp147
aaa(lp148
(g103
I3
tp149
a(lp150
g6
(g10
S'\x00\x00\x00\x00\x00\x00\x00\x00'
p151
tp152
Rp153
ag6
(g10
S'\x00\x00\x00\x00\x00\x00\x00\x00'
p154
tp155
Rp156
aF0.0
ag6
(g21
S'\x00\x00\x00\x00'
p157
tp158
Rp159
ag159
aaa(lp160
(g103
I4
tp161
a(lp162
g6
(g10
S'\x80 f\xf8\xdf\xab\xde?'
p163
tp164
Rp165
ag6
(g10
S'\x82/\x9cA0\xe7\xce?'
p166
tp167
Rp168
aF0.10843865631375126
ag6
(g21
S'\x83%\xc0='
p169
tp170
Rp171
ag6
(g21
S'Y\xefn?'
p172
tp173
Rp174
aaa(lp175
(g103
I5
tp176
a(lp177
g6
(g10
S'\xcdBR\x8f\xa3k\xe4?'
p178
tp179
Rp180
ag6
(g10
S'\xfc\x84\xd6\xcf\x7f\xb9\xdc?'
p181
tp182
Rp183
aF0.20396062417934108
ag6
(g21
S'05\xf8='
p184
tp185
Rp186
ag6
(g21
S'!T\xc6?'
p187
tp188
Rp189
aaa(lp190
(Vconv2d_2
p191
I0
tp192
a(lp193
g6
(g10
S'\xb7F\xf2\xf5\xa3\xf2\xdd?'
p194
tp195
Rp196
ag6
(g10
S'\xca\xf6\xa4W\xcch\xd4?'
p197
tp198
Rp199
aF0.3161227391914452
ag6
(g21
S'\x00\x00\x00\x00'
p200
tp201
Rp202
ag6
(g21
S'<9\xf9?'
p203
tp204
Rp205
aaa(lp206
(g191
I1
tp207
a(lp208
g6
(g10
S'\x7f%\xb5_\x80\xcb\xe0?'
p209
tp210
Rp211
ag6
(g10
S'\x19\xe8\xaf\xb5\xa1\x99\xdb?'
p212
tp213
Rp214
aF0.394706659652704
ag6
(g21
S'\x00\x00\x00\x00'
p215
tp216
Rp217
ag6
(g21
S'&\x02\x17@'
p218
tp219
Rp220
aaa(lp221
(g191
I2
tp222
a(lp223
g6
(g10
S'[\x8f\xfa3\x1dN\xc7?'
p224
tp225
Rp226
ag6
(g10
S'\x9b\xe0\x13\xc5\x0e\xea\xb3?'
p227
tp228
Rp229
aF0.2112822984501688
ag6
(g21
S'\x00\x00\x00\x00'
p230
tp231
Rp232
ag6
(g21
S'#)\xdf?'
p233
tp234
Rp235
aaa(lp236
(g191
I3
tp237
a(lp238
g6
(g10
S'C\x04\xfe\xe2\xf8j\xe1?'
p239
tp240
Rp241
ag6
(g10
S'L<\xc9\xfc\x95\x80\xd9?'
p242
tp243
Rp244
aF0.31969034662668977
ag6
(g21
S'\x00\x00\x00\x00'
p245
tp246
Rp247
ag6
(g21
S'\xa2\x9f\x05@'
p248
tp249
Rp250
aaa(lp251
(g191
I4
tp252
a(lp253
g6
(g10
S'\xa7\xbd:\x9f@\xb4\xe1?'
p254
tp255
Rp256
ag6
(g10
S'U\x97|d\x1dl\xde?'
p257
tp258
Rp259
aF0.4114114753769678
ag6
(g21
S'\x00\x00\x00\x00'
p260
tp261
Rp262
ag6
(g21
S'kn\x0f@'
p263
tp264
Rp265
aaa(lp266
(g191
I5
tp267
a(lp268
g6
(g10
S'\x04\xe1\x06C\x1f\xed\xd6?'
p269
tp270
Rp271
ag6
(g10
S'\x86\xa0\xd8\x18l\xba\xcc?'
p272
tp273
Rp274
aF0.31002514688748223
ag6
(g21
S'\x00\x00\x00\x00'
p275
tp276
Rp277
ag6
(g21
S'\xcd\xa3\r@'
p278
tp279
Rp280
aaa(lp281
(g191
I6
tp282
a(lp283
g6
(g10
S'!\xfa\xc7/\xf7s\xe4?'
p284
tp285
Rp286
ag6
(g10
S'\x82\xc9\xac\x0c\x03\xe0\xe1?'
p287
tp288
Rp289
aF0.3873949805446319
ag6
(g21
S'\x00\x00\x00\x00'
p290
tp291
Rp292
ag6
(g21
S'\xe2\x94\x1b@'
p293
tp294
Rp295
aaa(lp296
(g191
I7
tp297
a(lp298
g6
(g10
S'\x06B^}\x02\x8f\xe7?'
p299
tp300
Rp301
ag6
(g10
S'\x81\xf8\x862\x9e\xbc\xe7?'
p302
tp303
Rp304
aF0.44696034515522237
ag6
(g21
S'\x00\x00\x00\x00'
p305
tp306
Rp307
ag6
(g21
S'\xd6l\x05@'
p308
tp309
Rp310
aaa(lp311
(g191
I8
tp312
a(lp313
g6
(g10
S'\x00\x00\x00\x00\x00\x00\x00\x00'
p314
tp315
Rp316
ag6
(g10
S'\x00\x00\x00\x00\x00\x00\x00\x00'
p317
tp318
Rp319
aF0.0
ag6
(g21
S'\x00\x00\x00\x00'
p320
tp321
Rp322
ag322
aaa(lp323
(g191
I9
tp324
a(lp325
g6
(g10
S'\x99:\xd5\x1cRf\xdd?'
p326
tp327
Rp328
ag6
(g10
S'\x9bG\x87\x96\xd75\xd0?'
p329
tp330
Rp331
aF0.20558530275081208
ag6
(g21
S'\x00\x00\x00\x00'
p332
tp333
Rp334
ag6
(g21
S'\xf6\x08\xad?'
p335
tp336
Rp337
aaa(lp338
(g191
I10
tp339
a(lp340
g6
(g10
S'e\xdf\x16TC\xae\xec?'
p341
tp342
Rp343
ag6
(g10
S'\x995\xa5\xe6\xd0\xc2\xf0?'
p344
tp345
Rp346
aF0.4942250488442238
ag6
(g21
S'#x\x05:'
p347
tp348
Rp349
ag6
(g21
S'\xa2@6@'
p350
tp351
Rp352
aaa(lp353
(g191
I11
tp354
a(lp355
g6
(g10
S'`\xea\xfdK\xe5u\xda?'
p356
tp357
Rp358
ag6
(g10
S'X\x03w\xf5&\xf4\xce?'
p359
tp360
Rp361
aF0.2662489788540523
ag6
(g21
S'\x00\x00\x00\x00'
p362
tp363
Rp364
ag6
(g21
S'mM\x02@'
p365
tp366
Rp367
aaa(lp368
(g191
I12
tp369
a(lp370
g6
(g10
S'\xd0/\x7fC!+\xec?'
p371
tp372
Rp373
ag6
(g10
S'\x0e\xa26\xc0\xe00\xf0?'
p374
tp375
Rp376
aF0.4868950828563576
ag6
(g21
S'\x00\x00\x00\x00'
p377
tp378
Rp379
ag6
(g21
S'\xad&\x15@'
p380
tp381
Rp382
aaa(lp383
(g191
I13
tp384
a(lp385
g6
(g10
S'\xfd\xb8\x06\xbe+*\xe6?'
p386
tp387
Rp388
ag6
(g10
S'\xe4H\xd0,\x9f\xfe\xe4?'
p389
tp390
Rp391
aF0.4199056677028784
ag6
(g21
S'\x00\x00\x00\x00'
p392
tp393
Rp394
ag6
(g21
S',\xbf3@'
p395
tp396
Rp397
aaa(lp398
(g191
I14
tp399
a(lp400
g6
(g10
S'\xd8\x93\x16\xd6\xa5\x00\xd2?'
p401
tp402
Rp403
ag6
(g10
S'z4\x16\x17\x04\x83\xbd?'
p404
tp405
Rp406
aF0.1901488646278175
ag6
(g21
S'\x00\x00\x00\x00'
p407
tp408
Rp409
ag6
(g21
S'*~\xb0?'
p410
tp411
Rp412
aaa(lp413
(g191
I15
tp414
a(lp415
g6
(g10
S'\x00\x00\x00\x00\x00\x00\x00\x00'
p416
tp417
Rp418
ag6
(g10
S'\x00\x00\x00\x00\x00\x00\x00\x00'
p419
tp420
Rp421
aF0.0
ag6
(g21
S'\x00\x00\x00\x00'
p422
tp423
Rp424
ag424
aaa(lp425
(Vmax_pooling2d_1
p426
I0
tp427
a(lp428
g6
(g10
S'\x17=t`\xb7\t\xf0?'
p429
tp430
Rp431
ag6
(g10
S'uL\xb1:\x06F\xf6?'
p432
tp433
Rp434
aF0.6223711615035007
ag6
(g21
S'\x00\x00\x00\x00'
p435
tp436
Rp437
ag6
(g21
S'\x8c\xf5|@'
p438
tp439
Rp440
aaa(lp441
(g426
I1
tp442
a(lp443
g6
(g10
S'\xce)\x108f\xe6\xf1?'
p444
tp445
Rp446
ag6
(g10
S'\x18\xa5\x8d\xa3\xcf\x07\xfe?'
p447
tp448
Rp449
aF0.7907628139811285
ag6
(g21
S'\x00\x00\x00\x00'
p450
tp451
Rp452
ag6
(g21
S'\xbe7\xa2@'
p453
tp454
Rp455
aaa(lp456
(g426
I2
tp457
a(lp458
g6
(g10
S'\xc8U\x91@\xb0\xf8\xd6?'
p459
tp460
Rp461
ag6
(g10
S'}\xc5\x1c/1u\xd0?'
p462
tp463
Rp464
aF0.3582219966351648
ag6
(g21
S'\x00\x00\x00\x00'
p465
tp466
Rp467
ag6
(g21
S'{\xfa1@'
p468
tp469
Rp470
aaa(lp471
(g426
I3
tp472
a(lp473
g6
(g10
S'\x88.\xb9\xd8:\x89\xf4?'
p474
tp475
Rp476
ag6
(g10
S'\xcc\xde\xb5\xef\x01|\x01@'
p477
tp478
Rp479
aF0.7336004540748464
ag6
(g21
S'\x00\x00\x00\x00'
p480
tp481
Rp482
ag6
(g21
S'\xfe]\x9d@'
p483
tp484
Rp485
aaa(lp486
(g426
I4
tp487
a(lp488
g6
(g10
S'6\x93x\xe1.\xfa\xf2?'
p489
tp490
Rp491
ag6
(g10
S'|g\xac\xb5\xd9\xfb\x00@'
p492
tp493
Rp494
aF0.8462791473924132
ag6
(g21
S'\x00\x00\x00\x00'
p495
tp496
Rp497
ag6
(g21
S'Re\x9e@'
p498
tp499
Rp500
aaa(lp501
(g426
I5
tp502
a(lp503
g6
(g10
S'\x06\x1c\x01\xa5$\xfc\xe7?'
p504
tp505
Rp506
ag6
(g10
S'?\xe2\xa8\xae\xd1\xba\xec?'
p507
tp508
Rp509
aF0.5796646033801196
ag6
(g21
S'\x00\x00\x00\x00'
p510
tp511
Rp512
ag6
(g21
S'\xdd\x87\x8e@'
p513
tp514
Rp515
aaa(lp516
(g426
I6
tp517
a(lp518
g6
(g10
S'\xa6\xc8pQL\xac\xf6?'
p519
tp520
Rp521
ag6
(g10
S'\xec\xbf_E\xc0K\x05@'
p522
tp523
Rp524
aF0.8086499192930484
ag6
(g21
S'\x00\x00\x00\x00'
p525
tp526
Rp527
ag6
(g21
S'5\x1c\xa3@'
p528
tp529
Rp530
aaa(lp531
(g426
I7
tp532
a(lp533
g6
(g10
S'\xfc\x0e\xd14\xf6\xc4\xf8?'
p534
tp535
Rp536
ag6
(g10
S'\\\xffi\xfe`\xcf\x08@'
p537
tp538
Rp539
aF0.8394568672741951
ag6
(g21
S'\x00\x00\x00\x00'
p540
tp541
Rp542
ag6
(g21
S'\x16\xbe\x87@'
p543
tp544
Rp545
aaa(lp546
(g426
I8
tp547
a(lp548
g6
(g10
S'\x00\x00\x00\x00\x00\x00\x00\x00'
p549
tp550
Rp551
ag6
(g10
S'\x00\x00\x00\x00\x00\x00\x00\x00'
p552
tp553
Rp554
aF0.0
ag6
(g21
S'\x00\x00\x00\x00'
p555
tp556
Rp557
ag557
aaa(lp558
(g426
I9
tp559
a(lp560
g6
(g10
S'\xa7\xb4\x9f"E\xa0\xf0?'
p561
tp562
Rp563
ag6
(g10
S'\x883\x82\x01\x81m\xf4?'
p564
tp565
Rp566
aF0.44378650100865974
ag6
(g21
S'\x00\x00\x00\x00'
p567
tp568
Rp569
ag6
(g21
S'>0>@'
p570
tp571
Rp572
aaa(lp573
(g426
I10
tp574
a(lp575
g6
(g10
S'\x9d=A\xdc:\xe5\xfc?'
p576
tp577
Rp578
ag6
(g10
S'\x86\x81\x8eG\x91A\x10@'
p579
tp580
Rp581
aF0.8958368011379692
ag6
(g21
S'#x\x05;'
p582
tp583
Rp584
ag6
(g21
S'\t\xa5\xa7@'
p585
tp586
Rp587
aaa(lp588
(g426
I11
tp589
a(lp590
g6
(g10
S'!\x80Z\x94\x18%\xec?'
p591
tp592
Rp593
ag6
(g10
S'qAY\xbf\xc2s\xf0?'
p594
tp595
Rp596
aF0.5046700192692525
ag6
(g21
S'\x00\x00\x00\x00'
p597
tp598
Rp599
ag6
(g21
S'(\x82_@'
p600
tp601
Rp602
aaa(lp603
(g426
I12
tp604
a(lp605
g6
(g10
S'~W\x8b\xc91N\xf9?'
p606
tp607
Rp608
ag6
(g10
S'\xc22\xb7t\xbf\xde\x08@'
p609
tp610
Rp611
aF0.7793171757468278
ag6
(g21
S'\x00\x00\x00\x00'
p612
tp613
Rp614
ag6
(g21
S'\x10\x9d\x82@'
p615
tp616
Rp617
aaa(lp618
(g426
I13
tp619
a(lp620
g6
(g10
S'?\xf2\x8b=\xff\x82\xf6?'
p621
tp622
Rp623
ag6
(g10
S'\xc1\xed\xc1R\xffW\x05@'
p624
tp625
Rp626
aF0.8296806386795378
ag6
(g21
S'\x00\x00\x00\x00'
p627
tp628
Rp629
ag6
(g21
S'\x89y\xa7@'
p630
tp631
Rp632
aaa(lp633
(g426
I14
tp634
a(lp635
g6
(g10
S'\x10\xf3\x9b\xb9-\xbf\xe5?'
p636
tp637
Rp638
ag6
(g10
S'=\xc0GIe\xd3\xe4?'
p639
tp640
Rp641
aF0.4347025714386047
ag6
(g21
S'\x00\x00\x00\x00'
p642
tp643
Rp644
ag6
(g21
S'\xa2\x87D@'
p645
tp646
Rp647
aaa(lp648
(g426
I15
tp649
a(lp650
g6
(g10
S'\x00\x00\x00\x00\x00\x00\x00\x00'
p651
tp652
Rp653
ag6
(g10
S'\x00\x00\x00\x00\x00\x00\x00\x00'
p654
tp655
Rp656
aF0.0
ag6
(g21
S'\x00\x00\x00\x00'
p657
tp658
Rp659
ag659
aaa(lp660
(Vdense_1
p661
I0
tp662
a(lp663
g6
(g10
S's\xc2\xcf\xdf\x9fx\xf2?'
p664
tp665
Rp666
ag6
(g10
S'\x95_X\x07,{\x14@'
p667
tp668
Rp669
aF1.9461582304957585
ag6
(g21
S'\x00\x00\x00\x00'
p670
tp671
Rp672
ag6
(g21
S'\x08\x9dkA'
p673
tp674
Rp675
aaa(lp676
(g661
I1
tp677
a(lp678
g6
(g10
S'G\x19\x97\xdb\x7f6\xf4?'
p679
tp680
Rp681
ag6
(g10
S'\xa3\x9f\x98\xf8U"\x16@'
p682
tp683
Rp684
aF1.984336216594581
ag6
(g21
S'\x00\x00\x00\x00'
p685
tp686
Rp687
ag6
(g21
S'\xa6N\\A'
p688
tp689
Rp690
aaa(lp691
(g661
I2
tp692
a(lp693
g6
(g10
S'9\r`\xd0\xcf\xc0\xb8?'
p694
tp695
Rp696
ag6
(g10
S'\x88\xee\x99\xa3EZ\xd1?'
p697
tp698
Rp699
aF0.5116496947143343
ag6
(g21
S'\x00\x00\x00\x00'
p700
tp701
Rp702
ag6
(g21
S'\xb9?\x04A'
p703
tp704
Rp705
aaa(lp706
(g661
I3
tp707
a(lp708
g6
(g10
S'!B\xb4h\x1a\xb1\xd4?'
p709
tp710
Rp711
ag6
(g10
S'\x81\xb4\xe1 \x8b\xd3\xea?'
p712
tp713
Rp714
aF0.8566178450390306
ag6
(g21
S'\x00\x00\x00\x00'
p715
tp716
Rp717
ag6
(g21
S'#\xba\nA'
p718
tp719
Rp720
aaa(lp721
(g661
I4
tp722
a(lp723
g6
(g10
S'\xfbKq\xd8-"\xdf?'
p724
tp725
Rp726
ag6
(g10
S'\xf9\x0fc2\x01\xbb\xf4?'
p727
tp728
Rp729
aF1.0290826066999557
ag6
(g21
S'\x00\x00\x00\x00'
p730
tp731
Rp732
ag6
(g21
S'\x08\xef\x16A'
p733
tp734
Rp735
aaa(lp736
(g661
I5
tp737
a(lp738
g6
(g10
S'}s\x06\xed\xb0|\xd7?'
p739
tp740
Rp741
ag6
(g10
S'\xcb\x98~\xeb\x14\xc0\xf3?'
p742
tp743
Rp744
aF1.0486737161231436
ag6
(g21
S'\x00\x00\x00\x00'
p745
tp746
Rp747
ag6
(g21
S'&\x83HA'
p748
tp749
Rp750
aaa(lp751
(g661
I6
tp752
a(lp753
g6
(g10
S'Y\xc6+e\xd9_\x00@'
p754
tp755
Rp756
ag6
(g10
S'"-\xa1sn\xab0@'
p757
tp758
Rp759
aF3.532740900794089
ag6
(g21
S'\x00\x00\x00\x00'
p760
tp761
Rp762
ag6
(g21
S'\xc0\x97\xa1A'
p763
tp764
Rp765
aaa(lp766
(g661
I7
tp767
a(lp768
g6
(g10
S'\xeeB\x12\r\xca\xce\xdf?'
p769
tp770
Rp771
ag6
(g10
S'\x96\x04\xb6qlm\xf2?'
p772
tp773
Rp774
aF0.9511620850939181
ag6
(g21
S'\x00\x00\x00\x00'
p775
tp776
Rp777
ag6
(g21
S'\xed\x87\xe7@'
p778
tp779
Rp780
aaa(lp781
(g661
I8
tp782
a(lp783
g6
(g10
S' \x07i-\x81\xef\xc3?'
p784
tp785
Rp786
ag6
(g10
S'*\xe5s\xcd1\xb1\xd6?'
p787
tp788
Rp789
aF0.5747243626290579
ag6
(g21
S'\x00\x00\x00\x00'
p790
tp791
Rp792
ag6
(g21
S'^\x84\x00A'
p793
tp794
Rp795
aaa(lp796
(g661
I9
tp797
a(lp798
g6
(g10
S'\xbd\xc2\xed\xd6\x10\x98\xf2?'
p799
tp800
Rp801
ag6
(g10
S'\xcdk}&F\x96\x17@'
p802
tp803
Rp804
aF2.1321858389764903
ag6
(g21
S'\x00\x00\x00\x00'
p805
tp806
Rp807
ag6
(g21
S'\xfb\xab\x84A'
p808
tp809
Rp810
aaa(lp811
(g661
I10
tp812
a(lp813
g6
(g10
S'\xdf\x8b\x8b\x16\x8ft\xf3?'
p814
tp815
Rp816
ag6
(g10
S'0\xd9\t\xe7\xafh\x19@'
p817
tp818
Rp819
aF2.2076418739457555
ag6
(g21
S'\x00\x00\x00\x00'
p820
tp821
Rp822
ag6
(g21
S'\x94%\x15A'
p823
tp824
Rp825
aaa(lp826
(g661
I11
tp827
a(lp828
g6
(g10
S'\x00\xc1\xbb\x13\r"\xe4?'
p829
tp830
Rp831
ag6
(g10
S'\xe5\xd2z\x86\x92\x85\xff?'
p832
tp833
Rp834
aF1.2547001156368043
ag6
(g21
S'\x00\x00\x00\x00'
p835
tp836
Rp837
ag6
(g21
S'tj\nA'
p838
tp839
Rp840
aaa(lp841
(g661
I12
tp842
a(lp843
g6
(g10
S'\xa6\xf5\xfe\xc3\x02\x1e\x02@'
p844
tp845
Rp846
ag6
(g10
S'\x883\xda9\x19\x942@'
p847
tp848
Rp849
aF3.6674041883247983
ag6
(g21
S'\x00\x00\x00\x00'
p850
tp851
Rp852
ag6
(g21
S'\x8f>\x9bA'
p853
tp854
Rp855
aaa(lp856
(g661
I13
tp857
a(lp858
g6
(g10
S'\xf3}g\xf5f?\xa9?'
p859
tp860
Rp861
ag6
(g10
S'\xcb\x14\xb1\xda!\xbf\xa2?'
p862
tp863
Rp864
aF0.1848859518949816
ag6
(g21
S'\x00\x00\x00\x00'
p865
tp866
Rp867
ag6
(g21
S'\xfa\xb9\x16@'
p868
tp869
Rp870
aaa(lp871
(g661
I14
tp872
a(lp873
g6
(g10
S'\xa4Efy\xc5\xff\xe1?'
p874
tp875
Rp876
ag6
(g10
S'\xd4p\xc0&\xbe\xdf\x02@'
p877
tp878
Rp879
aF1.4292916247606384
ag6
(g21
S'\x00\x00\x00\x00'
p880
tp881
Rp882
ag6
(g21
S'Y\x8d%A'
p883
tp884
Rp885
aaa(lp886
(g661
I15
tp887
a(lp888
g6
(g10
S'v\xe6SbO\x0f\xb8?'
p889
tp890
Rp891
ag6
(g10
S'\xef\x82\xd6w\xde\xb0\xc9?'
p892
tp893
Rp894
aF0.43803789152342987
ag6
(g21
S'\x00\x00\x00\x00'
p895
tp896
Rp897
ag6
(g21
S'\xfb\xde\tA'
p898
tp899
Rp900
aaa(lp901
(g661
I16
tp902
a(lp903
g6
(g10
S'v\x1b\x8d\x8b4\xed\xfd?'
p904
tp905
Rp906
ag6
(g10
S'\xd3]\x8c\x80\x8fC$@'
p907
tp908
Rp909
aF2.5755611540199026
ag6
(g21
S'\x00\x00\x00\x00'
p910
tp911
Rp912
ag6
(g21
S'\xde\x07BA'
p913
tp914
Rp915
aaa(lp916
(g661
I17
tp917
a(lp918
g6
(g10
S'\x8e\x9f6e\xba\x0c\x00@'
p919
tp920
Rp921
ag6
(g10
S'+\xb7\x87\xdc\xf92.@'
p922
tp923
Rp924
aF3.3278618259838577
ag6
(g21
S'\x00\x00\x00\x00'
p925
tp926
Rp927
ag6
(g21
S'\xeb\xdf\x98A'
p928
tp929
Rp930
aaa(lp931
(g661
I18
tp932
a(lp933
g6
(g10
S'\xbf\xbc\x9eZ~\xf8\xec?'
p934
tp935
Rp936
ag6
(g10
S'\xcci\xebf\x07\x9a\x0b@'
p937
tp938
Rp939
aF1.6219063920371188
ag6
(g21
S'\x00\x00\x00\x00'
p940
tp941
Rp942
ag6
(g21
S'\xac\xddaA'
p943
tp944
Rp945
aaa(lp946
(g661
I19
tp947
a(lp948
g6
(g10
S'X\x95.D\xf7\\\xcd?'
p949
tp950
Rp951
ag6
(g10
S'\x0c\xa3\xd1\x084\x8a\xe3?'
p952
tp953
Rp954
aF0.7469915270773144
ag6
(g21
S'\x00\x00\x00\x00'
p955
tp956
Rp957
ag6
(g21
S'A.\xf8@'
p958
tp959
Rp960
aaa(lp961
(g661
I20
tp962
a(lp963
g6
(g10
S'T\xd8h\xd4,\x9c\xda?'
p964
tp965
Rp966
ag6
(g10
S'\x08\x96\x1b^V\x88\xed?'
p967
tp968
Rp969
aF0.8660357560292213
ag6
(g21
S'\x00\x00\x00\x00'
p970
tp971
Rp972
ag6
(g21
S'xq\xcf@'
p973
tp974
Rp975
aaa(lp976
(g661
I21
tp977
a(lp978
g6
(g10
S'\xf5@\xa1U\x81\x84\xd5?'
p979
tp980
Rp981
ag6
(g10
S'\xde]\xaf+oL\xe4?'
p982
tp983
Rp984
aF0.722005211045532
ag6
(g21
S'\x00\x00\x00\x00'
p985
tp986
Rp987
ag6
(g21
S'\xb4Oe@'
p988
tp989
Rp990
aaa(lp991
(g661
I22
tp992
a(lp993
g6
(g10
S'\xdd\t}c\x07\x17\xf9?'
p994
tp995
Rp996
ag6
(g10
S'\x9e_\xa8\xbeDh#@'
p997
tp998
Rp999
aF2.691587262859005
ag6
(g21
S'\x00\x00\x00\x00'
p1000
tp1001
Rp1002
ag6
(g21
S'(\xd9ZA'
p1003
tp1004
Rp1005
aaa(lp1006
(g661
I23
tp1007
a(lp1008
g6
(g10
S'\x05\xf9[\xe9d\x88\xd2?'
p1009
tp1010
Rp1011
ag6
(g10
S'\xacV\x10\x95\xb6\n\xf0?'
p1012
tp1013
Rp1014
aF0.9585207050791137
ag6
(g21
S'\x00\x00\x00\x00'
p1015
tp1016
Rp1017
ag6
(g21
S'\xa7A"A'
p1018
tp1019
Rp1020
aaa(lp1021
(g661
I24
tp1022
a(lp1023
g6
(g10
S'\xf1\x08\xa5d\xe3\x8e\xd9?'
p1024
tp1025
Rp1026
ag6
(g10
S'b\xb7\xd7\xff\xb3\xa0\xf9?'
p1027
tp1028
Rp1029
aF1.2009399517858061
ag6
(g21
S'\x00\x00\x00\x00'
p1030
tp1031
Rp1032
ag6
(g21
S'\x86?jA'
p1033
tp1034
Rp1035
aaa(lp1036
(g661
I25
tp1037
a(lp1038
g6
(g10
S'\x93{\xf2\x9ek\x0c\xb6?'
p1039
tp1040
Rp1041
ag6
(g10
S'"\xa2p\xbc\xf9\x87\xb3?'
p1042
tp1043
Rp1044
aF0.2624418189820692
ag6
(g21
S'\x00\x00\x00\x00'
p1045
tp1046
Rp1047
ag6
(g21
S'\xbciJ@'
p1048
tp1049
Rp1050
aaa(lp1051
(g661
I26
tp1052
a(lp1053
g6
(g10
S'/q,\xd1\xcc\xc2\xf3?'
p1054
tp1055
Rp1056
ag6
(g10
S'\xa9MM]&h\x1d@'
p1057
tp1058
Rp1059
aF2.4137810751106947
ag6
(g21
S'\x00\x00\x00\x00'
p1060
tp1061
Rp1062
ag6
(g21
S':\xc5uA'
p1063
tp1064
Rp1065
aaa(lp1066
(g661
I27
tp1067
a(lp1068
g6
(g10
S'\x8f\xebI\x0cR\x00\xec?'
p1069
tp1070
Rp1071
ag6
(g10
S'I\x94\xc3\xfd\xc0\xe0\x05@'
p1072
tp1073
Rp1074
aF1.4032282900180122
ag6
(g21
S'\x00\x00\x00\x00'
p1075
tp1076
Rp1077
ag6
(g21
S'g\x04\x10A'
p1078
tp1079
Rp1080
aaa(lp1081
(g661
I28
tp1082
a(lp1083
g6
(g10
S'\x07u\xdd\xa67\x91\\?'
p1084
tp1085
Rp1086
ag6
(g10
S"\x1a\xbf~'\xe8-;?"
p1087
tp1088
Rp1089
aF0.020289982782518423
ag6
(g21
S'\x00\x00\x00\x00'
p1090
tp1091
Rp1092
ag6
(g21
S'\xb4;s?'
p1093
tp1094
Rp1095
aaa(lp1096
(g661
I29
tp1097
a(lp1098
g6
(g10
S'a7\xa7\x11\xd1+\xf2?'
p1099
tp1100
Rp1101
ag6
(g10
S'\xd0_7\xdfW\x98\x11@'
p1102
tp1103
Rp1104
aF1.7632254680102868
ag6
(g21
S'\x00\x00\x00\x00'
p1105
tp1106
Rp1107
ag6
(g21
S"D\xc1'A"
p1108
tp1109
Rp1110
aaa(lp1111
(g661
I30
tp1112
a(lp1113
g6
(g10
S'H\x07\x0b\xebK\x16\xd7?'
p1114
tp1115
Rp1116
ag6
(g10
S'\xf9\xae@W\x92d\xf3?'
p1117
tp1118
Rp1119
aF1.0401553986759056
ag6
(g21
S'\x00\x00\x00\x00'
p1120
tp1121
Rp1122
ag6
(g21
S'\xf8n\x18A'
p1123
tp1124
Rp1125
aaa(lp1126
(g661
I31
tp1127
a(lp1128
g6
(g10
S'=+\x0c\xac\xda\x9f\xd8?'
p1129
tp1130
Rp1131
ag6
(g10
S'\x05\xff\xfc\xd0\xba\xa2\xe8?'
p1132
tp1133
Rp1134
aF0.7885599114360391
ag6
(g21
S'\x00\x00\x00\x00'
p1135
tp1136
Rp1137
ag6
(g21
S'\x96\x10\x9b@'
p1138
tp1139
Rp1140
aaa(lp1141
(g661
I32
tp1142
a(lp1143
g6
(g10
S'^.\x849\x07\xc4\xec?'
p1144
tp1145
Rp1146
ag6
(g10
S'\xaaJ\xe6\xe6\xdf\xe3\x10@'
p1147
tp1148
Rp1149
aF1.847825763395695
ag6
(g21
S'\x00\x00\x00\x00'
p1150
tp1151
Rp1152
ag6
(g21
S'1\xebNA'
p1153
tp1154
Rp1155
aaa(lp1156
(g661
I33
tp1157
a(lp1158
g6
(g10
S'\xb9\x9c7_\xc2\x97\xf5?'
p1159
tp1160
Rp1161
ag6
(g10
S'\xb6kwo\x87u\x13@'
p1162
tp1163
Rp1164
aF1.7445594373683282
ag6
(g21
S'\x00\x00\x00\x00'
p1165
tp1166
Rp1167
ag6
(g21
S'\xe4F2A'
p1168
tp1169
Rp1170
aaa(lp1171
(g661
I34
tp1172
a(lp1173
g6
(g10
S'K\x84hF-\xf2\xe3?'
p1174
tp1175
Rp1176
ag6
(g10
S'\xf8\xf0\xc5\x07\xff4\x01@'
p1177
tp1178
Rp1179
aF1.3275384943417234
ag6
(g21
S'\x00\x00\x00\x00'
p1180
tp1181
Rp1182
ag6
(g21
S'\xce\x17;A'
p1183
tp1184
Rp1185
aaa(lp1186
(g661
I35
tp1187
a(lp1188
g6
(g10
S'\x82\xce-\xe3\x97\xb2\xe6?'
p1189
tp1190
Rp1191
ag6
(g10
S'0\x11\xc46O\xb2\x01@'
p1192
tp1193
Rp1194
aF1.307270945866679
ag6
(g21
S'\x00\x00\x00\x00'
p1195
tp1196
Rp1197
ag6
(g21
S'/G\x18A'
p1198
tp1199
Rp1200
aaa(lp1201
(g661
I36
tp1202
a(lp1203
g6
(g10
S'\xa0^)\x87\xba\xfbj?'
p1204
tp1205
Rp1206
ag6
(g10
S'\xb2c\xc5f\x81\x88U?'
p1207
tp1208
Rp1209
aF0.036103105097551665
ag6
(g21
S'\x00\x00\x00\x00'
p1210
tp1211
Rp1212
ag6
(g21
S'\xb4\t\x9c?'
p1213
tp1214
Rp1215
aaa(lp1216
(g661
I37
tp1217
a(lp1218
g6
(g10
S'\x90\xb1\xbco\x89\x80\xf1?'
p1219
tp1220
Rp1221
ag6
(g10
S'\xc2\xcc\x9b\xaf\xee\xb2\x15@'
p1222
tp1223
Rp1224
aF2.0562497040040197
ag6
(g21
S'\x00\x00\x00\x00'
p1225
tp1226
Rp1227
ag6
(g21
S'\xcdKPA'
p1228
tp1229
Rp1230
aaa(lp1231
(g661
I38
tp1232
a(lp1233
g6
(g10
S'N\x1f@2\x967\xf4?'
p1234
tp1235
Rp1236
ag6
(g10
S'\xf3\xa3V\x13j\xe6\x11@'
p1237
tp1238
Rp1239
aF1.6965855174362983
ag6
(g21
S'\x00\x00\x00\x00'
p1240
tp1241
Rp1242
ag6
(g21
S'\x06\x93,A'
p1243
tp1244
Rp1245
aaa(lp1246
(g661
I39
tp1247
a(lp1248
g6
(g10
S'\xa8!\x0e\xc2\x966\xc7?'
p1249
tp1250
Rp1251
ag6
(g10
S'\x9c\x1f\x0b\xc2\xb4{\xda?'
p1252
tp1253
Rp1254
aF0.6171801657379085
ag6
(g21
S'\x00\x00\x00\x00'
p1255
tp1256
Rp1257
ag6
(g21
S'`\x1a\xa3@'
p1258
tp1259
Rp1260
aaa(lp1261
(g661
I40
tp1262
a(lp1263
g6
(g10
S'\xca\xe2\xb1n\x85_\xed?'
p1264
tp1265
Rp1266
ag6
(g10
S'\xfc]sU\x9dx\x14@'
p1267
tp1268
Rp1269
aF2.067662533481983
ag6
(g21
S'\x00\x00\x00\x00'
p1270
tp1271
Rp1272
ag6
(g21
S'\x8btLA'
p1273
tp1274
Rp1275
aaa(lp1276
(g661
I41
tp1277
a(lp1278
g6
(g10
S'\x91\xa7\xf2\xd2e\xbb\xcf?'
p1279
tp1280
Rp1281
ag6
(g10
S'\xe7\xcc]\xdb\xd1n\xdb?'
p1282
tp1283
Rp1284
aF0.6059548705788264
ag6
(g21
S'\x00\x00\x00\x00'
p1285
tp1286
Rp1287
ag6
(g21
S'%\xde\x9d@'
p1288
tp1289
Rp1290
aaa(lp1291
(g661
I42
tp1292
a(lp1293
g6
(g10
S'\xc3|r!E,\xe4?'
p1294
tp1295
Rp1296
ag6
(g10
S'\xf8\xde_(\x9d<\x06@'
p1297
tp1298
Rp1299
aF1.5434336245657487
ag6
(g21
S'\x00\x00\x00\x00'
p1300
tp1301
Rp1302
ag6
(g21
S'8\x8fDA'
p1303
tp1304
Rp1305
aaa(lp1306
(g661
I43
tp1307
a(lp1308
g6
(g10
S'\xa9\xc7s-9\x13\xd1?'
p1309
tp1310
Rp1311
ag6
(g10
S'\xaf\t.\x01\xcc\xa3\xea?'
p1312
tp1313
Rp1314
aF0.8725327529370652
ag6
(g21
S'\x00\x00\x00\x00'
p1315
tp1316
Rp1317
ag6
(g21
S'\xfd\xa9\x1eA'
p1318
tp1319
Rp1320
aaa(lp1321
(g661
I44
tp1322
a(lp1323
g6
(g10
S'\xb3\x1e;\x95\xb9\xa7\xcc>'
p1324
tp1325
Rp1326
ag6
(g10
S'\xfb\x1c\x7f\x8f\x7fI\xa1>'
p1327
tp1328
Rp1329
aF0.0007177632883442798
ag6
(g21
S'\x00\x00\x00\x00'
p1330
tp1331
Rp1332
ag6
(g21
S'\r\x031>'
p1333
tp1334
Rp1335
aaa(lp1336
(g661
I45
tp1337
a(lp1338
g6
(g10
S'^\xf1c\x0e\xd3!\xd4?'
p1339
tp1340
Rp1341
ag6
(g10
S'J\xf2\x1f\xd1\x9eH\xf0?'
p1342
tp1343
Rp1344
aF0.9585294844663288
ag6
(g21
S'\x00\x00\x00\x00'
p1345
tp1346
Rp1347
ag6
(g21
S'\x87\xcb&A'
p1348
tp1349
Rp1350
aaa(lp1351
(g661
I46
tp1352
a(lp1353
g6
(g10
S'\x83Q:\r\x17B\xf4?'
p1354
tp1355
Rp1356
ag6
(g10
S'\x99$3&T\x11\x19@'
p1357
tp1358
Rp1359
aF2.159588862937065
ag6
(g21
S'\x00\x00\x00\x00'
p1360
tp1361
Rp1362
ag6
(g21
S'\xff\xe3zA'
p1363
tp1364
Rp1365
aaa(lp1366
(g661
I47
tp1367
a(lp1368
g6
(g10
S'\x13^\x15\x88W\x01\xda?'
p1369
tp1370
Rp1371
ag6
(g10
S'\x0b\x01\x07zB@\xfa?'
p1372
tp1373
Rp1374
aF1.2147356834438672
ag6
(g21
S'\x00\x00\x00\x00'
p1375
tp1376
Rp1377
ag6
(g21
S'\x0c\xeb4A'
p1378
tp1379
Rp1380
aaa(lp1381
(g661
I48
tp1382
a(lp1383
g6
(g10
S'\xd7Cj\xe6\xcf\x04\xb5?'
p1384
tp1385
Rp1386
ag6
(g10
S'-\xce\xaa\xec\x03\x80\xbd?'
p1387
tp1388
Rp1389
aF0.3293834102345135
ag6
(g21
S'\x00\x00\x00\x00'
p1390
tp1391
Rp1392
ag6
(g21
S'\xe2\x04\x97@'
p1393
tp1394
Rp1395
aaa(lp1396
(g661
I49
tp1397
a(lp1398
g6
(g10
S',\xa8\r\x03\\\xdd\xf0?'
p1399
tp1400
Rp1401
ag6
(g10
S'\x7fm\x81\xc8<d\x0b@'
p1402
tp1403
Rp1404
aF1.5208345661245797
ag6
(g21
S'\x00\x00\x00\x00'
p1405
tp1406
Rp1407
ag6
(g21
S'\xca\xe2(A'
p1408
tp1409
Rp1410
aaa(lp1411
(g661
I50
tp1412
a(lp1413
g6
(g10
S'\xfd\x86\xf1\\\xdbf\xa8?'
p1414
tp1415
Rp1416
ag6
(g10
S'\xb8\xa5]\x95i\xb6\xc1?'
p1417
tp1418
Rp1419
aF0.3689279541242198
ag6
(g21
S'\x00\x00\x00\x00'
p1420
tp1421
Rp1422
ag6
(g21
S'\x85\x17,A'
p1423
tp1424
Rp1425
aaa(lp1426
(g661
I51
tp1427
a(lp1428
g6
(g10
S'\xec\xfb\x19\xfa2\xba\xe4?'
p1429
tp1430
Rp1431
ag6
(g10
S'\xf2%\xc4\xaab\xe9\x0c@'
p1432
tp1433
Rp1434
aF1.7872896705490842
ag6
(g21
S'\x00\x00\x00\x00'
p1435
tp1436
Rp1437
ag6
(g21
S'\x1cQ\x7fA'
p1438
tp1439
Rp1440
aaa(lp1441
(g661
I52
tp1442
a(lp1443
g6
(g10
S'AR"\x91\xaap\xfb?'
p1444
tp1445
Rp1446
ag6
(g10
S'\xd4\x92\x9a\xed\xca\t%@'
p1447
tp1448
Rp1449
aF2.7527948233239585
ag6
(g21
S'\x00\x00\x00\x00'
p1450
tp1451
Rp1452
ag6
(g21
S'\x9f\xecMA'
p1453
tp1454
Rp1455
aaa(lp1456
(g661
I53
tp1457
a(lp1458
g6
(g10
S'\xab\xb3\xc1k\x00.\xf6?'
p1459
tp1460
Rp1461
ag6
(g10
S'\xe0%\x9fQ\x89:\x1d@'
p1462
tp1463
Rp1464
aF2.3206741325221665
ag6
(g21
S'\x00\x00\x00\x00'
p1465
tp1466
Rp1467
ag6
(g21
S'\xef\x1bLA'
p1468
tp1469
Rp1470
aaa(lp1471
(g661
I54
tp1472
a(lp1473
g6
(g10
S'\xf5\\*\xc3\x84\xfd\xcf?'
p1474
tp1475
Rp1476
ag6
(g10
S'\xd8\x87\xf6?G\x8b\xe5?'
p1477
tp1478
Rp1479
aF0.7815302971703877
ag6
(g21
S'\x00\x00\x00\x00'
p1480
tp1481
Rp1482
ag6
(g21
S'\xfc\xcb"A'
p1483
tp1484
Rp1485
aaa(lp1486
(g661
I55
tp1487
a(lp1488
g6
(g10
S'\x8b\x0c1\x98\xb6{\xe6?'
p1489
tp1490
Rp1491
ag6
(g10
S'\xd3\x83\x86$\t\x83\x05@'
p1492
tp1493
Rp1494
aF1.4816656540208293
ag6
(g21
S'\x00\x00\x00\x00'
p1495
tp1496
Rp1497
ag6
(g21
S'\x0ei1A'
p1498
tp1499
Rp1500
aaa(lp1501
(g661
I56
tp1502
a(lp1503
g6
(g10
S'\x01\xc9`\x87aR\xe5?'
p1504
tp1505
Rp1506
ag6
(g10
S'\x01\xb3\xd4\t\x11n\x01@'
p1507
tp1508
Rp1509
aF1.3171102417454985
ag6
(g21
S'\x00\x00\x00\x00'
p1510
tp1511
Rp1512
ag6
(g21
S'\x90y\nA'
p1513
tp1514
Rp1515
aaa(lp1516
(g661
I57
tp1517
a(lp1518
g6
(g10
S";\x08'n\xc0\x8b\xf2?"
p1519
tp1520
Rp1521
ag6
(g10
S'\x7f\x9fp|$S\x1e@'
p1522
tp1523
Rp1524
aF2.4975261498933716
ag6
(g21
S'\x00\x00\x00\x00'
p1525
tp1526
Rp1527
ag6
(g21
S'4\x92\x94A'
p1528
tp1529
Rp1530
aaa(lp1531
(g661
I58
tp1532
a(lp1533
g6
(g10
S'Z\x95\x9e\xb6p\xe5\xee?'
p1534
tp1535
Rp1536
ag6
(g10
S'\xca\x8f\xf6\xd8<\xec\x10@'
p1537
tp1538
Rp1539
aF1.8161760545977008
ag6
(g21
S'\x00\x00\x00\x00'
p1540
tp1541
Rp1542
ag6
(g21
S'\xb0\xe6oA'
p1543
tp1544
Rp1545
aaa(lp1546
(g661
I59
tp1547
a(lp1548
g6
(g10
S'W\x01rt\xa3\xb3\xea?'
p1549
tp1550
Rp1551
ag6
(g10
S'\xa6\xa0\xa7\xfc|Y\t@'
p1552
tp1553
Rp1554
aF1.5723944981298383
ag6
(g21
S'\x00\x00\x00\x00'
p1555
tp1556
Rp1557
ag6
(g21
S'\xcbh$A'
p1558
tp1559
Rp1560
aaa(lp1561
(g661
I60
tp1562
a(lp1563
g6
(g10
S'\x94\xc2\x15\x01yd\xf9?'
p1564
tp1565
Rp1566
ag6
(g10
S'\xf4\x1e\xb1\xe0B\x97$@'
p1567
tp1568
Rp1569
aF2.788685998973508
ag6
(g21
S'\x00\x00\x00\x00'
p1570
tp1571
Rp1572
ag6
(g21
S'\xa0e\x80A'
p1573
tp1574
Rp1575
aaa(lp1576
(g661
I61
tp1577
a(lp1578
g6
(g10
S'\xef\x9f\x08\xac\x14\\\x00@'
p1579
tp1580
Rp1581
ag6
(g10
S'\xe3\x07\xb3\x8d\x88\x15+@'
p1582
tp1583
Rp1584
aF3.059442876064037
ag6
(g21
S'\x00\x00\x00\x00'
p1585
tp1586
Rp1587
ag6
(g21
S'\xe4r\x98A'
p1588
tp1589
Rp1590
aaa(lp1591
(g661
I62
tp1592
a(lp1593
g6
(g10
S'\x97u\xa7\xe5\x14Y\xd2?'
p1594
tp1595
Rp1596
ag6
(g10
S'\x03}\xc66\xe1\xfd\xe1?'
p1597
tp1598
Rp1599
aF0.6928576186670021
ag6
(g21
S'\x00\x00\x00\x00'
p1600
tp1601
Rp1602
ag6
(g21
S'\x00v\xc4@'
p1603
tp1604
Rp1605
aaa(lp1606
(g661
I63
tp1607
a(lp1608
g6
(g10
S'0\xef\xb8\x82\xe1;\xdc?'
p1609
tp1610
Rp1611
ag6
(g10
S'e\xc2\x8b\xf7\xd6*\xfa?'
p1612
tp1613
Rp1614
aF1.2003504995424903
ag6
(g21
S'\x00\x00\x00\x00'
p1615
tp1616
Rp1617
ag6
(g21
S'Ax*A'
p1618
tp1619
Rp1620
aaa(lp1621
(g661
I64
tp1622
a(lp1623
g6
(g10
S'\x95>r\x9d\xa3+\xe8?'
p1624
tp1625
Rp1626
ag6
(g10
S'$\xe8bW\xf8:\x05@'
p1627
tp1628
Rp1629
aF1.4433554818308854
ag6
(g21
S'\x00\x00\x00\x00'
p1630
tp1631
Rp1632
ag6
(g21
S's<?A'
p1633
tp1634
Rp1635
aaa(lp1636
(g661
I65
tp1637
a(lp1638
g6
(g10
S'\xc3\xa5\xc6\x86\xef_\xef?'
p1639
tp1640
Rp1641
ag6
(g10
S'\xec\xe2\x99phF\x0e@'
p1642
tp1643
Rp1644
aF1.6802009773993114
ag6
(g21
S'\x00\x00\x00\x00'
p1645
tp1646
Rp1647
ag6
(g21
S'\xed\xb7)A'
p1648
tp1649
Rp1650
aaa(lp1651
(g661
I66
tp1652
a(lp1653
g6
(g10
S'\x95\x10Lw\x14\x14\xd5?'
p1654
tp1655
Rp1656
ag6
(g10
S'\xfcQ[\xd54i\xf1?'
p1657
tp1658
Rp1659
aF0.9898047005575176
ag6
(g21
S'\x00\x00\x00\x00'
p1660
tp1661
Rp1662
ag6
(g21
S'\x08\xa20A'
p1663
tp1664
Rp1665
aaa(lp1666
(g661
I67
tp1667
a(lp1668
g6
(g10
S'J|P\xcf\xb4F\xf5?'
p1669
tp1670
Rp1671
ag6
(g10
S'\x91\x9c\xf4\xc8Z\xc7\x16@'
p1672
tp1673
Rp1674
aF1.9815182412079668
ag6
(g21
S'\x00\x00\x00\x00'
p1675
tp1676
Rp1677
ag6
(g21
S'\xc9\x11/A'
p1678
tp1679
Rp1680
aaa(lp1681
(g661
I68
tp1682
a(lp1683
g6
(g10
S'\x00\xefY\xf0I.\xe0?'
p1684
tp1685
Rp1686
ag6
(g10
S'\x079\xd8AZ\x1b\xf4?'
p1687
tp1688
Rp1689
aF1.0004976030088855
ag6
(g21
S'\x00\x00\x00\x00'
p1690
tp1691
Rp1692
ag6
(g21
S'\x93s\x1aA'
p1693
tp1694
Rp1695
aaa(lp1696
(g661
I69
tp1697
a(lp1698
g6
(g10
S'\xb7\x11\nd\xe7\xef\xed?'
p1699
tp1700
Rp1701
ag6
(g10
S'\xc3>\x8e~\xa4\xd2\x13@'
p1702
tp1703
Rp1704
aF2.020019708378578
ag6
(g21
S'\x00\x00\x00\x00'
p1705
tp1706
Rp1707
ag6
(g21
S'\xc4\xda]A'
p1708
tp1709
Rp1710
aaa(lp1711
(g661
I70
tp1712
a(lp1713
g6
(g10
S'\x83/mgn\xa2\xe2?'
p1714
tp1715
Rp1716
ag6
(g10
S'\xd0_\xc0}\x9f\xcf\x05@'
p1717
tp1718
Rp1719
aF1.5450800896195052
ag6
(g21
S'\x00\x00\x00\x00'
p1720
tp1721
Rp1722
ag6
(g21
S'\xce\x91OA'
p1723
tp1724
Rp1725
aaa(lp1726
(g661
I71
tp1727
a(lp1728
g6
(g10
S').:+{\xba\xed?'
p1729
tp1730
Rp1731
ag6
(g10
S'\xeb\x03\xb2J\xb0\x8c\n@'
p1732
tp1733
Rp1734
aF1.5670446599993577
ag6
(g21
S'\x00\x00\x00\x00'
p1735
tp1736
Rp1737
ag6
(g21
S'c\xd9CA'
p1738
tp1739
Rp1740
aaa(lp1741
(g661
I72
tp1742
a(lp1743
g6
(g10
S'g`5\xa5\x04\xcf\xd6?'
p1744
tp1745
Rp1746
ag6
(g10
S't\x91PR\xed\r\xf5?'
p1747
tp1748
Rp1749
aF1.0903621476499497
ag6
(g21
S'\x00\x00\x00\x00'
p1750
tp1751
Rp1752
ag6
(g21
S'X\xe6\x18A'
p1753
tp1754
Rp1755
aaa(lp1756
(g661
I73
tp1757
a(lp1758
g6
(g10
S'\x80\x9d\x0f^\xdf[\xe0?'
p1759
tp1760
Rp1761
ag6
(g10
S'\xe8\xeae\xca_N\xf8?'
p1762
tp1763
Rp1764
aF1.1215139942537475
ag6
(g21
S'\x00\x00\x00\x00'
p1765
tp1766
Rp1767
ag6
(g21
S'\x9c\x87GA'
p1768
tp1769
Rp1770
aaa(lp1771
(g661
I74
tp1772
a(lp1773
g6
(g10
S'g)\xf0\x0b\xcc\xf5\x86?'
p1774
tp1775
Rp1776
ag6
(g10
S'\xb7\x95\x08\xff;Un?'
p1777
tp1778
Rp1779
aF0.059808574474664276
ag6
(g21
S'\x00\x00\x00\x00'
p1780
tp1781
Rp1782
ag6
(g21
S'h\xd7\xcc?'
p1783
tp1784
Rp1785
aaa(lp1786
(g661
I75
tp1787
a(lp1788
g6
(g10
S'\x9a\x0b\xb0L\x96\xfd\xe0?'
p1789
tp1790
Rp1791
ag6
(g10
S'\x8e\xbeU\xd7\x16\xe5\x00@'
p1792
tp1793
Rp1794
aF1.3527550681717653
ag6
(g21
S'\x00\x00\x00\x00'
p1795
tp1796
Rp1797
ag6
(g21
S'x\xb8DA'
p1798
tp1799
Rp1800
aaa(lp1801
(g661
I76
tp1802
a(lp1803
g6
(g10
S'\x00\x00\x00\x00\x00\x00\x00\x00'
p1804
tp1805
Rp1806
ag6
(g10
S'\x00\x00\x00\x00\x00\x00\x00\x00'
p1807
tp1808
Rp1809
aF0.0
ag6
(g21
S'\x00\x00\x00\x00'
p1810
tp1811
Rp1812
ag1812
aaa(lp1813
(g661
I77
tp1814
a(lp1815
g6
(g10
S'\xb2\x17\xffM#\x1c\x01@'
p1816
tp1817
Rp1818
ag6
(g10
S'\x07\xc9\x1c\xe5\x12\xb6(@'
p1819
tp1820
Rp1821
aF2.7895174286222697
ag6
(g21
S'\x00\x00\x00\x00'
p1822
tp1823
Rp1824
ag6
(g21
S'F\xd6|A'
p1825
tp1826
Rp1827
aaa(lp1828
(g661
I78
tp1829
a(lp1830
g6
(g10
S'`\xb5\xd5\xbe\xce3\xe3?'
p1831
tp1832
Rp1833
ag6
(g10
S'\x93\x8c\xa21F\xf3\x02@'
p1834
tp1835
Rp1836
aF1.4172851578432828
ag6
(g21
S'\x00\x00\x00\x00'
p1837
tp1838
Rp1839
ag6
(g21
S'T\xf0>A'
p1840
tp1841
Rp1842
aaa(lp1843
(g661
I79
tp1844
a(lp1845
g6
(g10
S'\xa8\xfe\xed\xc7\x82\x94\xc2?'
p1846
tp1847
Rp1848
ag6
(g10
S'\xa7\tDq\x13\x1a\xd4?'
p1849
tp1850
Rp1851
aF0.5413140854910315
ag6
(g21
S'\x00\x00\x00\x00'
p1852
tp1853
Rp1854
ag6
(g21
S'\xaeJ\x0cA'
p1855
tp1856
Rp1857
aaa(lp1858
(g661
I80
tp1859
a(lp1860
g6
(g10
S'\xda\x0bs[\x9e\x19\xea?'
p1861
tp1862
Rp1863
ag6
(g10
S'pO#i\xd0\x9b\x04@'
p1864
tp1865
Rp1866
aF1.382328927792477
ag6
(g21
S'\x00\x00\x00\x00'
p1867
tp1868
Rp1869
ag6
(g21
S'\xf7\xda\xf0@'
p1870
tp1871
Rp1872
aaa(lp1873
(g661
I81
tp1874
a(lp1875
g6
(g10
S'S!D\x0f\x98\x17H?'
p1876
tp1877
Rp1878
ag6
(g10
S'\xef\x01\xcd\xbf)\xf4.?'
p1879
tp1880
Rp1881
aF0.015349849936846491
ag6
(g21
S'\x00\x00\x00\x00'
p1882
tp1883
Rp1884
ag6
(g21
S'\xfc\x96\\?'
p1885
tp1886
Rp1887
aaa(lp1888
(g661
I82
tp1889
a(lp1890
g6
(g10
S'\x1d\x90\x85@Iq\xf5?'
p1891
tp1892
Rp1893
ag6
(g10
S'\xf5\x18^\x18M\x17\x15@'
p1894
tp1895
Rp1896
aF1.8645997531697813
ag6
(g21
S'\x00\x00\x00\x00'
p1897
tp1898
Rp1899
ag6
(g21
S'VC5A'
p1900
tp1901
Rp1902
aaa(lp1903
(g661
I83
tp1904
a(lp1905
g6
(g10
S'}\x03\xe7vk\xa3\xd6?'
p1906
tp1907
Rp1908
ag6
(g10
S'F\x1b\x06\xe0@\xdd\xf3?'
p1909
tp1910
Rp1911
aF1.0565964369815608
ag6
(g21
S'\x00\x00\x00\x00'
p1912
tp1913
Rp1914
ag6
(g21
S'\x87\xd4\xeb@'
p1915
tp1916
Rp1917
aaa(lp1918
(g661
I84
tp1919
a(lp1920
g6
(g10
S'\x07u*ic\xd3\xf3?'
p1921
tp1922
Rp1923
ag6
(g10
S'\x91{\xdfS@\x8a\x1c@'
p1924
tp1925
Rp1926
aF2.3663518750708366
ag6
(g21
S'\x00\x00\x00\x00'
p1927
tp1928
Rp1929
ag6
(g21
S'\x91@VA'
p1930
tp1931
Rp1932
aaa(lp1933
(g661
I85
tp1934
a(lp1935
g6
(g10
S'h\xe9\x01\xdf\xfc\x9d\xba?'
p1936
tp1937
Rp1938
ag6
(g10
S'\x03\xd4\x061\x08\x03\xc7?'
p1939
tp1940
Rp1941
aF0.411059122837248
ag6
(g21
S'\x00\x00\x00\x00'
p1942
tp1943
Rp1944
ag6
(g21
S'\xa1Y\xc0@'
p1945
tp1946
Rp1947
aaa(lp1948
(g661
I86
tp1949
a(lp1950
g6
(g10
S'\xb9\xc1\xa39\xe6\xd2\xee?'
p1951
tp1952
Rp1953
ag6
(g10
S'X\x030\xd7\xff\xe5\x11@'
p1954
tp1955
Rp1956
aF1.8832866782162498
ag6
(g21
S'\x00\x00\x00\x00'
p1957
tp1958
Rp1959
ag6
(g21
S'\xa1sxA'
p1960
tp1961
Rp1962
aaa(lp1963
(g661
I87
tp1964
a(lp1965
g6
(g10
S'z\x86]\xd7\xcaC\xdc?'
p1966
tp1967
Rp1968
ag6
(g10
S'z\xee\xb9M\x85\xf7\x00@'
p1969
tp1970
Rp1971
aF1.3877376742395424
ag6
(g21
S'\x00\x00\x00\x00'
p1972
tp1973
Rp1974
ag6
(g21
S'RqEA'
p1975
tp1976
Rp1977
aaa(lp1978
(g661
I88
tp1979
a(lp1980
g6
(g10
S'PXY\xdc4\xfa\xe1?'
p1981
tp1982
Rp1983
ag6
(g10
S'\xad\xf6\x8a\xd1\xf6T\x01@'
p1984
tp1985
Rp1986
aF1.3604687654351575
ag6
(g21
S'\x00\x00\x00\x00'
p1987
tp1988
Rp1989
ag6
(g21
S'\xb0\xac>A'
p1990
tp1991
Rp1992
aaa(lp1993
(g661
I89
tp1994
a(lp1995
g6
(g10
S'g\x0e\xd2m}N\xd4?'
p1996
tp1997
Rp1998
ag6
(g10
S'\t\x0fGN\xda1\xe8?'
p1999
tp2000
Rp2001
aF0.8095753127887719
ag6
(g21
S'\x00\x00\x00\x00'
p2002
tp2003
Rp2004
ag6
(g21
S'\xd8\x9e\x1aA'
p2005
tp2006
Rp2007
aaa(lp2008
(g661
I90
tp2009
a(lp2010
g6
(g10
S'\x9eV}R\xdbu\xbe?'
p2011
tp2012
Rp2013
ag6
(g10
S'\xf5\x85h.\xf1]\xd4?'
p2014
tp2015
Rp2016
aF0.5514309919700984
ag6
(g21
S'\x00\x00\x00\x00'
p2017
tp2018
Rp2019
ag6
(g21
S'\xb8\x84\x05A'
p2020
tp2021
Rp2022
aaa(lp2023
(g661
I91
tp2024
a(lp2025
g6
(g10
S'\xeb\xb0\xd8K\x85\xc6\xf6?'
p2026
tp2027
Rp2028
ag6
(g10
S'\x1f\x98x\xbe\xc4m*@'
p2029
tp2030
Rp2031
aF3.3448667331311244
ag6
(g21
S'\x00\x00\x00\x00'
p2032
tp2033
Rp2034
ag6
(g21
S'\xcc\x90\x92A'
p2035
tp2036
Rp2037
aaa(lp2038
(g661
I92
tp2039
a(lp2040
g6
(g10
S'\xad\xea6\xfb\x84\x13\xe3?'
p2041
tp2042
Rp2043
ag6
(g10
S'z\xe8\xa4\xf6\x18\xaa\xfc?'
p2044
tp2045
Rp2046
aF1.19839620408486
ag6
(g21
S'\x00\x00\x00\x00'
p2047
tp2048
Rp2049
ag6
(g21
S'\xb3+-A'
p2050
tp2051
Rp2052
aaa(lp2053
(g661
I93
tp2054
a(lp2055
g6
(g10
S'\x00\x00\x00\x00\x00\x00\x00\x00'
p2056
tp2057
Rp2058
ag6
(g10
S'\x00\x00\x00\x00\x00\x00\x00\x00'
p2059
tp2060
Rp2061
aF0.0
ag6
(g21
S'\x00\x00\x00\x00'
p2062
tp2063
Rp2064
ag2064
aaa(lp2065
(g661
I94
tp2066
a(lp2067
g6
(g10
S"\xde'Y\xe8\x11\x14\xd7?"
p2068
tp2069
Rp2070
ag6
(g10
S'\x95,\xfc\xa8i\x0c\xf0?'
p2071
tp2072
Rp2073
aF0.9343436801088718
ag6
(g21
S'\x00\x00\x00\x00'
p2074
tp2075
Rp2076
ag6
(g21
S'\x19\xa5\x8c@'
p2077
tp2078
Rp2079
aaa(lp2080
(g661
I95
tp2081
a(lp2082
g6
(g10
S'\x00\x00\x00\x00\x00\x00\x00\x00'
p2083
tp2084
Rp2085
ag6
(g10
S'\x00\x00\x00\x00\x00\x00\x00\x00'
p2086
tp2087
Rp2088
aF0.0
ag6
(g21
S'\x00\x00\x00\x00'
p2089
tp2090
Rp2091
ag2091
aaa(lp2092
(g661
I96
tp2093
a(lp2094
g6
(g10
S'(\xaa;\x08\xf2\xcd\xe3?'
p2095
tp2096
Rp2097
ag6
(g10
S'^\xb2\xed\x9a\xc0\xf0\xfd?'
p2098
tp2099
Rp2100
aF1.2199396781742722
ag6
(g21
S'\x00\x00\x00\x00'
p2101
tp2102
Rp2103
ag6
(g21
S'\xe5\xbd\x13A'
p2104
tp2105
Rp2106
aaa(lp2107
(g661
I97
tp2108
a(lp2109
g6
(g10
S'\xba\xe5_\x02\x1d\xd3\xf2?'
p2110
tp2111
Rp2112
ag6
(g10
S'\xf5\x9fY\xd4?9\x13@'
p2113
tp2114
Rp2115
aF1.8497724277248215
ag6
(g21
S'\x00\x00\x00\x00'
p2116
tp2117
Rp2118
ag6
(g21
S'\x94\xec"A'
p2119
tp2120
Rp2121
aaa(lp2122
(g661
I98
tp2123
a(lp2124
g6
(g10
S'\xe7\xd1%\xd5j\xd8\xc9?'
p2125
tp2126
Rp2127
ag6
(g10
S'\xde\x13\xb8\xf6L\x99\xdf?'
p2128
tp2129
Rp2130
aF0.6730239524375451
ag6
(g21
S'\x00\x00\x00\x00'
p2131
tp2132
Rp2133
ag6
(g21
S'\x86\x10\x18A'
p2134
tp2135
Rp2136
aaa(lp2137
(g661
I99
tp2138
a(lp2139
g6
(g10
S'\xa5\x1e\xa0U;\xda\xe1?'
p2140
tp2141
Rp2142
ag6
(g10
S't\x8fR\xc4\xbf\x96\x04@'
p2143
tp2144
Rp2145
aF1.504116725715772
ag6
(g21
S'\x00\x00\x00\x00'
p2146
tp2147
Rp2148
ag6
(g21
S'u\xd6%A'
p2149
tp2150
Rp2151
aaa(lp2152
(g661
I100
tp2153
a(lp2154
g6
(g10
S'\x00\x7fJ\xa5\xc3\x0b\xe3?'
p2155
tp2156
Rp2157
ag6
(g10
S';\x97\xa7\xa9\x9c\xd6\x02@'
p2158
tp2159
Rp2160
aF1.4144060755185457
ag6
(g21
S'\x00\x00\x00\x00'
p2161
tp2162
Rp2163
ag6
(g21
S'H\xabAA'
p2164
tp2165
Rp2166
aaa(lp2167
(g661
I101
tp2168
a(lp2169
g6
(g10
S']\xea\x04]\xa3 \xea?'
p2170
tp2171
Rp2172
ag6
(g10
S'\xa6\xd6\xd6\xd1\x14\x0c\r@'
p2173
tp2174
Rp2175
aF1.7217005320092502
ag6
(g21
S'\x00\x00\x00\x00'
p2176
tp2177
Rp2178
ag6
(g21
S'ZEVA'
p2179
tp2180
Rp2181
aaa(lp2182
(g661
I102
tp2183
a(lp2184
g6
(g10
S'L\xd3\xfc\x8b4\x1a\xe3?'
p2185
tp2186
Rp2187
ag6
(g10
S"\x80\xca'\xfe\x00\xac\x03@"
p2188
tp2189
Rp2190
aF1.4500476881860909
ag6
(g21
S'\x00\x00\x00\x00'
p2191
tp2192
Rp2193
ag6
(g21
S'q\x1eGA'
p2194
tp2195
Rp2196
aaa(lp2197
(g661
I103
tp2198
a(lp2199
g6
(g10
S'\x7f\xba\x1e\xf8aj\xf2?'
p2200
tp2201
Rp2202
ag6
(g10
S'0v\xed\x8d\xda\xe8\x16@'
p2203
tp2204
Rp2205
aF2.098251390658775
ag6
(g21
S'\x00\x00\x00\x00'
p2206
tp2207
Rp2208
ag6
(g21
S'\xf50yA'
p2209
tp2210
Rp2211
aaa(lp2212
(g661
I104
tp2213
a(lp2214
g6
(g10
S'[c8\xecD\x81\xb9?'
p2215
tp2216
Rp2217
ag6
(g10
S']\x98\xaa\xc2\x8e\xae\xb4?'
p2218
tp2219
Rp2220
aF0.26620039869864004
ag6
(g21
S'\x00\x00\x00\x00'
p2221
tp2222
Rp2223
ag6
(g21
S'\xeap*@'
p2224
tp2225
Rp2226
aaa(lp2227
(g661
I105
tp2228
a(lp2229
g6
(g10
S'\x04bF\xf8\\!\xcc?'
p2230
tp2231
Rp2232
ag6
(g10
S'\xce\x83\xfe\xfds3\xe0?'
p2233
tp2234
Rp2235
aF0.6767443016883321
ag6
(g21
S'\x00\x00\x00\x00'
p2236
tp2237
Rp2238
ag6
(g21
S'\x10\x96\xd6@'
p2239
tp2240
Rp2241
aaa(lp2242
(g661
I106
tp2243
a(lp2244
g6
(g10
S'k+\x11\x93J\xd7\xc1?'
p2245
tp2246
Rp2247
ag6
(g10
S'\xff\xdbU\xff\\\xf0\xd0?'
p2248
tp2249
Rp2250
aF0.49522023516480784
ag6
(g21
S'\x00\x00\x00\x00'
p2251
tp2252
Rp2253
ag6
(g21
S'w#\xbe@'
p2254
tp2255
Rp2256
aaa(lp2257
(g661
I107
tp2258
a(lp2259
g6
(g10
S'\xba\x9b\xdfW\nT\x01@'
p2260
tp2261
Rp2262
ag6
(g10
S'\x9es!\xeaS1%@'
p2263
tp2264
Rp2265
aF2.4299453061940577
ag6
(g21
S'\x00\x00\x00\x00'
p2266
tp2267
Rp2268
ag6
(g21
S'\xc2=EA'
p2269
tp2270
Rp2271
aaa(lp2272
(g661
I108
tp2273
a(lp2274
g6
(g10
S'\x87\x17|\x8f\xaeM\xf8?'
p2275
tp2276
Rp2277
ag6
(g10
S'\xda\xa3\x05\xbd\x82\xa9\x1d@'
p2278
tp2279
Rp2280
aF2.260150924424768
ag6
(g21
S'\x00\x00\x00\x00'
p2281
tp2282
Rp2283
ag6
(g21
S'\x977[A'
p2284
tp2285
Rp2286
aaa(lp2287
(g661
I109
tp2288
a(lp2289
g6
(g10
S'\xf4\xec\xe8\x92\xa1\x1a\xd8?'
p2290
tp2291
Rp2292
ag6
(g10
S'=\xa6X\xcbBp\xf1?'
p2293
tp2294
Rp2295
aF0.9736841021502265
ag6
(g21
S'\x00\x00\x00\x00'
p2296
tp2297
Rp2298
ag6
(g21
S'&D\xf3@'
p2299
tp2300
Rp2301
aaa(lp2302
(g661
I110
tp2303
a(lp2304
g6
(g10
S'`\xfa\x12\x98\x10b\x9a?'
p2305
tp2306
Rp2307
ag6
(g10
S'\x93\xbeV\x95S\xae\x97?'
p2308
tp2309
Rp2310
aF0.14987367980327237
ag6
(g21
S'\x00\x00\x00\x00'
p2311
tp2312
Rp2313
ag6
(g21
S')\x07!@'
p2314
tp2315
Rp2316
aaa(lp2317
(g661
I111
tp2318
a(lp2319
g6
(g10
S'\\\xdb\xf34\x17\xea\xf3?'
p2320
tp2321
Rp2322
ag6
(g10
S'\x8f\xb8\x80\x7f\xdc\x9e\x1a@'
p2323
tp2324
Rp2325
aF2.2596419632071867
ag6
(g21
S'\x00\x00\x00\x00'
p2326
tp2327
Rp2328
ag6
(g21
S'\x12\xa7[A'
p2329
tp2330
Rp2331
aaa(lp2332
(g661
I112
tp2333
a(lp2334
g6
(g10
S'yK\xed\xe2\xdd\x91\xac?'
p2335
tp2336
Rp2337
ag6
(g10
S'\xc7\xd0\xe4\xeb\xf9k\xb6?'
p2338
tp2339
Rp2340
aF0.2906396481320422
ag6
(g21
S'\x00\x00\x00\x00'
p2341
tp2342
Rp2343
ag6
(g21
S'\x8c\x07\xde@'
p2344
tp2345
Rp2346
aaa(lp2347
(g661
I113
tp2348
a(lp2349
g6
(g10
S'B\xd5\xea\x8at\x94\xf0?'
p2350
tp2351
Rp2352
ag6
(g10
S'j1\xe0\xd0\x94x\x12@'
p2353
tp2354
Rp2355
aF1.8825391498897077
ag6
(g21
S'\x00\x00\x00\x00'
p2356
tp2357
Rp2358
ag6
(g21
S'\xd5\xa7?A'
p2359
tp2360
Rp2361
aaa(lp2362
(g661
I114
tp2363
a(lp2364
g6
(g10
S'Q\x84\r\x8f\xab\xac\xf4?'
p2365
tp2366
Rp2367
ag6
(g10
S'\x0e\x94\xc1P)\x15\x15@'
p2368
tp2369
Rp2370
aF1.8976297874663042
ag6
(g21
S'\x00\x00\x00\x00'
p2371
tp2372
Rp2373
ag6
(g21
S'n\xc8DA'
p2374
tp2375
Rp2376
aaa(lp2377
(g661
I115
tp2378
a(lp2379
g6
(g10
S'\x1f/\xb8\xf9\xc4\x9c1?'
p2380
tp2381
Rp2382
ag6
(g10
S'~\xd6\x8aq\x0e\x9b\x14?'
p2383
tp2384
Rp2385
aF0.008861841958559677
ag6
(g21
S'\x00\x00\x00\x00'
p2386
tp2387
Rp2388
ag6
(g21
S'`\xc7D?'
p2389
tp2390
Rp2391
aaa(lp2392
(g661
I116
tp2393
a(lp2394
g6
(g10
S'}\xdf\xac*\x9dC\xe8?'
p2395
tp2396
Rp2397
ag6
(g10
S'\xf5w34p\xee\r@'
p2398
tp2399
Rp2400
aF1.7794595656778993
ag6
(g21
S'\x00\x00\x00\x00'
p2401
tp2402
Rp2403
ag6
(g21
S'=w7A'
p2404
tp2405
Rp2406
aaa(lp2407
(g661
I117
tp2408
a(lp2409
g6
(g10
S'\x116\xa0\xc3S\xac\xdc?'
p2410
tp2411
Rp2412
ag6
(g10
S'O\xe4\xf6Q\x98\xb6\xf0?'
p2413
tp2414
Rp2415
aF0.9186178276666067
ag6
(g21
S'\x00\x00\x00\x00'
p2416
tp2417
Rp2418
ag6
(g21
S'\x15\xdc\x14A'
p2419
tp2420
Rp2421
aaa(lp2422
(g661
I118
tp2423
a(lp2424
g6
(g10
S'\x19T\xacQ\xcf\x9b\xfc?'
p2425
tp2426
Rp2427
ag6
(g10
S'\xff\xfapJ\xdc\xa3 @'
p2428
tp2429
Rp2430
aF2.263394522585131
ag6
(g21
S'\x00\x00\x00\x00'
p2431
tp2432
Rp2433
ag6
(g21
S'\x99\xe5SA'
p2434
tp2435
Rp2436
aaa(lp2437
(g661
I119
tp2438
a(lp2439
g6
(g10
S'\x90{U\x95\xbf3\xef?'
p2440
tp2441
Rp2442
ag6
(g10
S'\xa1\xb4\xe0!\x17 \x0f@'
p2443
tp2444
Rp2445
aF1.714617620335351
ag6
(g21
S'\x00\x00\x00\x00'
p2446
tp2447
Rp2448
ag6
(g21
S' \xf8LA'
p2449
tp2450
Rp2451
aaa(lp2452
(Vdense_2
p2453
I0
tp2454
a(lp2455
g6
(g10
S'\xd85\xb2\x0b\x8c\xd1\xe5?'
p2456
tp2457
Rp2458
ag6
(g10
S'\x8cS\xe0\x18\x06x\xf8?'
p2459
tp2460
Rp2461
aF1.0317030860148135
ag6
(g21
S'\x00\x00\x00\x00'
p2462
tp2463
Rp2464
ag6
(g21
S'\x14Q\xc1@'
p2465
tp2466
Rp2467
aaa(lp2468
(g2453
I1
tp2469
a(lp2470
g6
(g10
S'\x1e[R\xab\xaf\xd6\xf3?'
p2471
tp2472
Rp2473
ag6
(g10
S'[eh\x05Q\t"@'
p2474
tp2475
Rp2476
aF2.735107030760356
ag6
(g21
S'\x00\x00\x00\x00'
p2477
tp2478
Rp2479
ag6
(g21
S'\xd8B\x94A'
p2480
tp2481
Rp2482
aaa(lp2483
(g2453
I2
tp2484
a(lp2485
g6
(g10
S'\x95\x04\xbe;\xfcv\xdd?'
p2486
tp2487
Rp2488
ag6
(g10
S'4\x97\xca\xd5\xe8\xe3\xed?'
p2489
tp2490
Rp2491
aF0.8497732242613378
ag6
(g21
S'\x00\x00\x00\x00'
p2492
tp2493
Rp2494
ag6
(g21
S'\xd5]\xb8@'
p2495
tp2496
Rp2497
aaa(lp2498
(g2453
I3
tp2499
a(lp2500
g6
(g10
S'\x85\xc0\xea}\xca\xc0\xec?'
p2501
tp2502
Rp2503
ag6
(g10
S'v\x13X<\x0c\xeb\x12@'
p2504
tp2505
Rp2506
aF1.9804482860984636
ag6
(g21
S'\x00\x00\x00\x00'
p2507
tp2508
Rp2509
ag6
(g21
S'\rz<A'
p2510
tp2511
Rp2512
aaa(lp2513
(g2453
I4
tp2514
a(lp2515
g6
(g10
S'h\xb3j\x8c\xb31\xe2?'
p2516
tp2517
Rp2518
ag6
(g10
S'\x1c\xfc\xc7\xec\xb67\xf6?'
p2519
tp2520
Rp2521
aF1.0321500291402856
ag6
(g21
S'\x00\x00\x00\x00'
p2522
tp2523
Rp2524
ag6
(g21
S'?\xcf\xa9@'
p2525
tp2526
Rp2527
aaa(lp2528
(g2453
I5
tp2529
a(lp2530
g6
(g10
S'\x8d\xe3J\xc0\x15\xe7\xc8?'
p2531
tp2532
Rp2533
ag6
(g10
S'`\x98\xae>\x95i\xd8?'
p2534
tp2535
Rp2536
aF0.5861686905030002
ag6
(g21
S'\x00\x00\x00\x00'
p2537
tp2538
Rp2539
ag6
(g21
S'_V\xa1@'
p2540
tp2541
Rp2542
aaa(lp2543
(g2453
I6
tp2544
a(lp2545
g6
(g10
S'\x0b1Y\x95@\xb9\xe1?'
p2546
tp2547
Rp2548
ag6
(g10
S'w-@\x0b\xce\x02\xf8?'
p2549
tp2550
Rp2551
aF1.0926663109852646
ag6
(g21
S'\x00\x00\x00\x00'
p2552
tp2553
Rp2554
ag6
(g21
S'\xfb\xb0\xfd@'
p2555
tp2556
Rp2557
aaa(lp2558
(g2453
I7
tp2559
a(lp2560
g6
(g10
S'\x97J*l\xce\xdc\xdf?'
p2561
tp2562
Rp2563
ag6
(g10
S'\x1b\x85\xeb\x84>\x94\xef?'
p2564
tp2565
Rp2566
aF0.859645074595307
ag6
(g21
S'\x00\x00\x00\x00'
p2567
tp2568
Rp2569
ag6
(g21
S'>\xbc\xa8@'
p2570
tp2571
Rp2572
aaa(lp2573
(g2453
I8
tp2574
a(lp2575
g6
(g10
S'\xaaB{\x91\xfb\x99\xf0?'
p2576
tp2577
Rp2578
ag6
(g10
S'?L\xf5\x8bJ\n\x10@'
p2579
tp2580
Rp2581
aF1.71273169892188
ag6
(g21
S'\x00\x00\x00\x00'
p2582
tp2583
Rp2584
ag6
(g21
S'w\xfe\xff@'
p2585
tp2586
Rp2587
aaa(lp2588
(g2453
I9
tp2589
a(lp2590
g6
(g10
S'\xfa\xd1\x8a\xbfT\xe7\xeb?'
p2591
tp2592
Rp2593
ag6
(g10
S'\xcf-\xdd\x9d\x87A\x06@'
p2594
tp2595
Rp2596
aF1.4218413195703608
ag6
(g21
S'\x00\x00\x00\x00'
p2597
tp2598
Rp2599
ag6
(g21
S'\x9a\x95\x0eA'
p2600
tp2601
Rp2602
aaa(lp2603
(g2453
I10
tp2604
a(lp2605
g6
(g10
S'\x86\xbc41\xd1S\xb2?'
p2606
tp2607
Rp2608
ag6
(g10
S'\x0eN\xdc\x80\x01s\xa3?'
p2609
tp2610
Rp2611
aF0.18127731436189398
ag6
(g21
S'\x00\x00\x00\x00'
p2612
tp2613
Rp2614
ag6
(g21
S'\xb1\x8a+@'
p2615
tp2616
Rp2617
aaa(lp2618
(g2453
I11
tp2619
a(lp2620
g6
(g10
S'\xa2\x17\x01\x90n\x97y?'
p2621
tp2622
Rp2623
ag6
(g10
S'm"4\x1d\xb8\x9b^?'
p2624
tp2625
Rp2626
aF0.04276849750141275
ag6
(g21
S'\x00\x00\x00\x00'
p2627
tp2628
Rp2629
ag6
(g21
S'\xbd\x04\x8a?'
p2630
tp2631
Rp2632
aaa(lp2633
(g2453
I12
tp2634
a(lp2635
g6
(g10
S'$\x83\xc0\xa4\xba\x1c\xcb?'
p2636
tp2637
Rp2638
ag6
(g10
S'd\xc6\xfe\x9c\x9fP\xde?'
p2639
tp2640
Rp2641
aF0.6548324932557629
ag6
(g21
S'\x00\x00\x00\x00'
p2642
tp2643
Rp2644
ag6
(g21
S'M\x87\xcd@'
p2645
tp2646
Rp2647
aaa(lp2648
(g2453
I13
tp2649
a(lp2650
g6
(g10
S',*4\x0f\nQ\xf7?'
p2651
tp2652
Rp2653
ag6
(g10
S'Kc\xb6w\xdf\xff\x14@'
p2654
tp2655
Rp2656
aF1.7681053063190626
ag6
(g21
S'\x00\x00\x00\x00'
p2657
tp2658
Rp2659
ag6
(g21
S'i\xa8\xe6@'
p2660
tp2661
Rp2662
aaa(lp2663
(g2453
I14
tp2664
a(lp2665
g6
(g10
S'6\xe5\xeb\xba\xdcI\xeb?'
p2666
tp2667
Rp2668
ag6
(g10
S'x\xca$s\xa8S\x10@'
p2669
tp2670
Rp2671
aF1.8315258023746788
ag6
(g21
S'\x00\x00\x00\x00'
p2672
tp2673
Rp2674
ag6
(g21
S'mS\x1aA'
p2675
tp2676
Rp2677
aaa(lp2678
(g2453
I15
tp2679
a(lp2680
g6
(g10
S'O\xaa\xa0\x9a\xd3\x89\xc0?'
p2681
tp2682
Rp2683
ag6
(g10
S'b\x9b\xb5\x81\xd7\x10\xbf?'
p2684
tp2685
Rp2686
aF0.32350658559636775
ag6
(g21
S'\x00\x00\x00\x00'
p2687
tp2688
Rp2689
ag6
(g21
S"'\x97\x96@"
p2690
tp2691
Rp2692
aaa(lp2693
(g2453
I16
tp2694
a(lp2695
g6
(g10
S'+h\xf7\x95\x83^\xfd?'
p2696
tp2697
Rp2698
ag6
(g10
S'm\xd2\x850\xac/#@'
p2699
tp2700
Rp2701
aF2.49474969997646
ag6
(g21
S'\x00\x00\x00\x00'
p2702
tp2703
Rp2704
ag6
(g21
S'wO4A'
p2705
tp2706
Rp2707
aaa(lp2708
(g2453
I17
tp2709
a(lp2710
g6
(g10
S"i$'\x8e\xa0s\xe1?"
p2711
tp2712
Rp2713
ag6
(g10
S'\x18\x13\xe5NM\x8b\xf6?'
p2714
tp2715
Rp2716
aF1.0543181104651667
ag6
(g21
S'\x00\x00\x00\x00'
p2717
tp2718
Rp2719
ag6
(g21
S'\xd0\xf3\xe9@'
p2720
tp2721
Rp2722
aaa(lp2723
(g2453
I18
tp2724
a(lp2725
g6
(g10
S'C\x9c}\x08\x1a^\x9b?'
p2726
tp2727
Rp2728
ag6
(g10
S'\xe5\xe9\x15\\\xd5\xb1\x8f?'
p2729
tp2730
Rp2731
aF0.12149741415138651
ag6
(g21
S'\x00\x00\x00\x00'
p2732
tp2733
Rp2734
ag6
(g21
S'\x18\x94\x15@'
p2735
tp2736
Rp2737
aaa(lp2738
(g2453
I19
tp2739
a(lp2740
g6
(g10
S'~\r\x8a\xbb\xb3\xb7\xf5?'
p2741
tp2742
Rp2743
ag6
(g10
S"UgR.\xf3' @"
p2744
tp2745
Rp2746
aF2.497124447953867
ag6
(g21
S'\x00\x00\x00\x00'
p2747
tp2748
Rp2749
ag6
(g21
S'\xc0\x04OA'
p2750
tp2751
Rp2752
aaa(lp2753
(g2453
I20
tp2754
a(lp2755
g6
(g10
S'\x06\xdf\x90\xa7\xfds\x00@'
p2756
tp2757
Rp2758
ag6
(g10
S'\xfb!\x02\xa2\xe8N)@'
p2759
tp2760
Rp2761
aF2.90247589799449
ag6
(g21
S'\x00\x00\x00\x00'
p2762
tp2763
Rp2764
ag6
(g21
S'\x99>YA'
p2765
tp2766
Rp2767
aaa(lp2768
(g2453
I21
tp2769
a(lp2770
g6
(g10
S'`\xdc>,\xd2\xb3\xfe?'
p2771
tp2772
Rp2773
ag6
(g10
S'\xe8\r\x05\xde\xcby-@'
p2774
tp2775
Rp2776
aF3.325011297187287
ag6
(g21
S'\x00\x00\x00\x00'
p2777
tp2778
Rp2779
ag6
(g21
S'k\xca\x94A'
p2780
tp2781
Rp2782
aaa(lp2783
(g2453
I22
tp2784
a(lp2785
g6
(g10
S'\xa1,\x13\x8b\xec\xbf\xd1?'
p2786
tp2787
Rp2788
ag6
(g10
S'd\xae\xf5\xdd\xa3\xe4\xd3?'
p2789
tp2790
Rp2791
aF0.48364563679917316
ag6
(g21
S'\x00\x00\x00\x00'
p2792
tp2793
Rp2794
ag6
(g21
S'w,W@'
p2795
tp2796
Rp2797
aaa(lp2798
(g2453
I23
tp2799
a(lp2800
g6
(g10
S'F\xa5xXm\xa9\xbc?'
p2801
tp2802
Rp2803
ag6
(g10
S'h\x85\x94\x81+\xcb\xb4?'
p2804
tp2805
Rp2806
aF0.2620878271303656
ag6
(g21
S'\x00\x00\x00\x00'
p2807
tp2808
Rp2809
ag6
(g21
S'\x18\xed\x11@'
p2810
tp2811
Rp2812
aaa(lp2813
(g2453
I24
tp2814
a(lp2815
g6
(g10
S'\xa9)\xd5\x96\xe59\xe5?'
p2816
tp2817
Rp2818
ag6
(g10
S'\xf7\xd5\xed\xabuB\x01@'
p2819
tp2820
Rp2821
aF1.3105193314325265
ag6
(g21
S'\x00\x00\x00\x00'
p2822
tp2823
Rp2824
ag6
(g21
S'\xbd\xfc\x02A'
p2825
tp2826
Rp2827
aaa(lp2828
(g2453
I25
tp2829
a(lp2830
g6
(g10
S'"7\xa4"\xdd\x1e\xe7?'
p2831
tp2832
Rp2833
ag6
(g10
S'\x10\x1ahf\xa3\x92\x00@'
p2834
tp2835
Rp2836
aF1.244816896640031
ag6
(g21
S'\x00\x00\x00\x00'
p2837
tp2838
Rp2839
ag6
(g21
S'hN\xb6@'
p2840
tp2841
Rp2842
aaa(lp2843
(g2453
I26
tp2844
a(lp2845
g6
(g10
S"\xc6\x81)\xbf'q\xf5?"
p2846
tp2847
Rp2848
ag6
(g10
S"Q/'}\xae?\x17@"
p2849
tp2850
Rp2851
aF2.0040588590385
ag6
(g21
S'\x00\x00\x00\x00'
p2852
tp2853
Rp2854
ag6
(g21
S'\x17T(A'
p2855
tp2856
Rp2857
aaa(lp2858
(g2453
I27
tp2859
a(lp2860
g6
(g10
S'\x13\xda\x06\xc7\xc2+\xf0?'
p2861
tp2862
Rp2863
ag6
(g10
S'\x07\xa1\xd2\xde`\xf4\x0c@'
p2864
tp2865
Rp2866
aF1.611782753590433
ag6
(g21
S'\x00\x00\x00\x00'
p2867
tp2868
Rp2869
ag6
(g21
S'!{(A'
p2870
tp2871
Rp2872
aaa(lp2873
(g2453
I28
tp2874
a(lp2875
g6
(g10
S'8}Nque\xf1?'
p2876
tp2877
Rp2878
ag6
(g10
S'\x8a\x98@R\x89\x1a\r@'
p2879
tp2880
Rp2881
aF1.5670994649825598
ag6
(g21
S'\x00\x00\x00\x00'
p2882
tp2883
Rp2884
ag6
(g21
S'q\xc5\xdb@'
p2885
tp2886
Rp2887
aaa(lp2888
(g2453
I29
tp2889
a(lp2890
g6
(g10
S'\xaf\xa8\xc9\xee?\x86\xf1?'
p2891
tp2892
Rp2893
ag6
(g10
S'53\x88\x17\x05&\t@'
p2894
tp2895
Rp2896
aF1.3942507984994357
ag6
(g21
S'\x00\x00\x00\x00'
p2897
tp2898
Rp2899
ag6
(g21
S' d\x08A'
p2900
tp2901
Rp2902
aaa(lp2903
(g2453
I30
tp2904
a(lp2905
g6
(g10
S'7\xa6\x877\x82\x89\xf0?'
p2906
tp2907
Rp2908
ag6
(g10
S'ZHvHd\x88\x10@'
p2909
tp2910
Rp2911
aF1.750692750578401
ag6
(g21
S'\x00\x00\x00\x00'
p2912
tp2913
Rp2914
ag6
(g21
S'\xc3\x80\x10A'
p2915
tp2916
Rp2917
aaa(lp2918
(g2453
I31
tp2919
a(lp2920
g6
(g10
S'}\xfaLd\xd2#\xda?'
p2921
tp2922
Rp2923
ag6
(g10
S'\xaa\x0b\xcdb\x07I\xe6?'
p2924
tp2925
Rp2926
aF0.72773234679468
ag6
(g21
S'\x00\x00\x00\x00'
p2927
tp2928
Rp2929
ag6
(g21
S'\x95\x83\xc3@'
p2930
tp2931
Rp2932
aaa(lp2933
(g2453
I32
tp2934
a(lp2935
g6
(g10
S'Q\x06F\x86\x15\xa9\xdb?'
p2936
tp2937
Rp2938
ag6
(g10
S'\xe6\x99\x8c\xda{\xfe\xef?'
p2939
tp2940
Rp2941
aF0.9016775122431152
ag6
(g21
S'\x00\x00\x00\x00'
p2942
tp2943
Rp2944
ag6
(g21
S'a\x90\xb2@'
p2945
tp2946
Rp2947
aaa(lp2948
(g2453
I33
tp2949
a(lp2950
g6
(g10
S'\xf7\xb4\x944\x155\xd2?'
p2951
tp2952
Rp2953
ag6
(g10
S'\x9d\x00\xc4\xa8\x97\xcf\xd8?'
p2954
tp2955
Rp2956
aF0.5538374506011522
ag6
(g21
S'\x00\x00\x00\x00'
p2957
tp2958
Rp2959
ag6
(g21
S'\xdd\x00o@'
p2960
tp2961
Rp2962
aaa(lp2963
(g2453
I34
tp2964
a(lp2965
g6
(g10
S'0"\xa2w\x9a\x87\xf6?'
p2966
tp2967
Rp2968
ag6
(g10
S'\x9c\xc7\xc8\xaf\x1f\xde\x13@'
p2969
tp2970
Rp2971
aF1.7274705234776586
ag6
(g21
S'\x00\x00\x00\x00'
p2972
tp2973
Rp2974
ag6
(g21
S'\xab\xaf\x10A'
p2975
tp2976
Rp2977
aaa(lp2978
(g2453
I35
tp2979
a(lp2980
g6
(g10
S'\x7fQi\xbf\x03r\xde?'
p2981
tp2982
Rp2983
ag6
(g10
S'\xdd\xb1(\x88\x832\xf3?'
p2984
tp2985
Rp2986
aF0.9866780179008349
ag6
(g21
S'\x00\x00\x00\x00'
p2987
tp2988
Rp2989
ag6
(g21
S'Y\xf9\xac@'
p2990
tp2991
Rp2992
aaa(lp2993
(g2453
I36
tp2994
a(lp2995
g6
(g10
S'\xe0\xb3\t!\x9d\xa3\xf2?'
p2996
tp2997
Rp2998
ag6
(g10
S'\xe2\xd2\x00,;\x84\x0f@'
p2999
tp3000
Rp3001
aF1.6070064296796456
ag6
(g21
S'\x00\x00\x00\x00'
p3002
tp3003
Rp3004
ag6
(g21
S'\x88o%A'
p3005
tp3006
Rp3007
aaa(lp3008
(g2453
I37
tp3009
a(lp3010
g6
(g10
S'\x11<\x18\x99\x8e\xcb\xf1?'
p3011
tp3012
Rp3013
ag6
(g10
S'D\x0c\x8f\x11\xf7,\x0f@'
p3014
tp3015
Rp3016
aF1.630942819256103
ag6
(g21
S'\x00\x00\x00\x00'
p3017
tp3018
Rp3019
ag6
(g21
S'\x17U\x04A'
p3020
tp3021
Rp3022
aaa(lp3023
(g2453
I38
tp3024
a(lp3025
g6
(g10
S'\ta\xd8r\x9c\x07\xe5?'
p3026
tp3027
Rp3028
ag6
(g10
S'\xd9\xec\xa9"\xcc`\x04@'
p3029
tp3030
Rp3031
aF1.4544345971903283
ag6
(g21
S'\x00\x00\x00\x00'
p3032
tp3033
Rp3034
ag6
(g21
S'\x95@.A'
p3035
tp3036
Rp3037
aaa(lp3038
(g2453
I39
tp3039
a(lp3040
g6
(g10
S'\x98\xfa\xc0\xed.\xda\xf4?'
p3041
tp3042
Rp3043
ag6
(g10
S'`%i\x91^<\x0b@'
p3044
tp3045
Rp3046
aF1.3061283645445785
ag6
(g21
S'\x00\x00\x00\x00'
p3047
tp3048
Rp3049
ag6
(g21
S'\xefV\xe1@'
p3050
tp3051
Rp3052
aaa(lp3053
(g2453
I40
tp3054
a(lp3055
g6
(g10
S'\xde\xe5\x84V%\xc2\xe8?'
p3056
tp3057
Rp3058
ag6
(g10
S'\x11X\xc2\xa2\xdf;\x05@'
p3059
tp3060
Rp3061
aF1.433744856776206
ag6
(g21
S'\x00\x00\x00\x00'
p3062
tp3063
Rp3064
ag6
(g21
S'\xbe|\x0cA'
p3065
tp3066
Rp3067
aaa(lp3068
(g2453
I41
tp3069
a(lp3070
g6
(g10
S'\x15\x84C\xaf7\xd8\xf7?'
p3071
tp3072
Rp3073
ag6
(g10
S"\x0bY\xf2t'\xbf%@"
p3074
tp3075
Rp3076
aF2.941494710795382
ag6
(g21
S'\x00\x00\x00\x00'
p3077
tp3078
Rp3079
ag6
(g21
S'\xe4\xbd\x85A'
p3080
tp3081
Rp3082
aaa(lp3083
(g2453
I42
tp3084
a(lp3085
g6
(g10
S'\xbc\x06\xfa_0(\xb6?'
p3086
tp3087
Rp3088
ag6
(g10
S'\xe8\xe1\x82t\xa4\x99\xb4?'
p3089
tp3090
Rp3091
aF0.2701450856456023
ag6
(g21
S'\x00\x00\x00\x00'
p3092
tp3093
Rp3094
ag6
(g21
S'\xa1\xab\x93@'
p3095
tp3096
Rp3097
aaa(lp3098
(g2453
I43
tp3099
a(lp3100
g6
(g10
S'\xd2\x15\xa0-\x17\\\xdd?'
p3101
tp3102
Rp3103
ag6
(g10
S'\xd5\xd8\xa6n\x90T\xee?'
p3104
tp3105
Rp3106
aF0.8587054816025675
ag6
(g21
S'\x00\x00\x00\x00'
p3107
tp3108
Rp3109
ag6
(g21
S'\xd0\xb3\xe4@'
p3110
tp3111
Rp3112
aaa(lp3113
(g2453
I44
tp3114
a(lp3115
g6
(g10
S'\xa8\xbe\xa4\x95\xf7\xf9\xd2?'
p3116
tp3117
Rp3118
ag6
(g10
S'\xa4\x84X\xd63\xdb\xe4?'
p3119
tp3120
Rp3121
aF0.7508940299524947
ag6
(g21
S'\x00\x00\x00\x00'
p3122
tp3123
Rp3124
ag6
(g21
S'c_\xb8@'
p3125
tp3126
Rp3127
aaa(lp3128
(g2453
I45
tp3129
a(lp3130
g6
(g10
S'4R\x02\x9d\xf2?\xbe?'
p3131
tp3132
Rp3133
ag6
(g10
S'\xe8\xe9\x15\xb65J\xc3?'
p3134
tp3135
Rp3136
aF0.3697832426772359
ag6
(g21
S'\x00\x00\x00\x00'
p3137
tp3138
Rp3139
ag6
(g21
S'\xdc\xa7(@'
p3140
tp3141
Rp3142
aaa(lp3143
(g2453
I46
tp3144
a(lp3145
g6
(g10
S'\x82\x19W\x7f(\\\xec?'
p3146
tp3147
Rp3148
ag6
(g10
S'0|\xe2\xfbX\xd2\x0f@'
p3149
tp3150
Rp3151
aF1.7866925069340767
ag6
(g21
S'\x00\x00\x00\x00'
p3152
tp3153
Rp3154
ag6
(g21
S'\xf7g\x19A'
p3155
tp3156
Rp3157
aaa(lp3158
(g2453
I47
tp3159
a(lp3160
g6
(g10
S'\x04\x02kc;\xcb\xca?'
p3161
tp3162
Rp3163
ag6
(g10
S'/\xaa{\x9aT\x1c\xdf?'
p3164
tp3165
Rp3166
aF0.6650460890181372
ag6
(g21
S'\x00\x00\x00\x00'
p3167
tp3168
Rp3169
ag6
(g21
S']\x1c\xaa@'
p3170
tp3171
Rp3172
aaa(lp3173
(g2453
I48
tp3174
a(lp3175
g6
(g10
S'\xd6\x8a\xd94O=\xf0?'
p3176
tp3177
Rp3178
ag6
(g10
S'C\x0ec\xeb\xf2\xf5\t@'
p3179
tp3180
Rp3181
aF1.4882647490819787
ag6
(g21
S'\x00\x00\x00\x00'
p3182
tp3183
Rp3184
ag6
(g21
S'\xe1\x86\xfc@'
p3185
tp3186
Rp3187
aaa(lp3188
(g2453
I49
tp3189
a(lp3190
g6
(g10
S'\x91\xcf\x90\xa1aD\xfa?'
p3191
tp3192
Rp3193
ag6
(g10
S'!\x05\xbe\xeb\x99\xd7!@'
p3194
tp3195
Rp3196
aF2.4951823191778066
ag6
(g21
S'\x00\x00\x00\x00'
p3197
tp3198
Rp3199
ag6
(g21
S'\x06>IA'
p3200
tp3201
Rp3202
aaa(lp3203
(g2453
I50
tp3204
a(lp3205
g6
(g10
S'$\xd8\xbb\xb6QW\xee?'
p3206
tp3207
Rp3208
ag6
(g10
S'\xfc\xbb[\xf3h\xd3\x04@'
p3209
tp3210
Rp3211
aF1.305458493247828
ag6
(g21
S'\x00\x00\x00\x00'
p3212
tp3213
Rp3214
ag6
(g21
S'\xf3\x96\xd3@'
p3215
tp3216
Rp3217
aaa(lp3218
(g2453
I51
tp3219
a(lp3220
g6
(g10
S'\xe1\xe8\xcd\x82\x99\xd3\xb1?'
p3221
tp3222
Rp3223
ag6
(g10
S'\x8d\x8cs2\x02\x9c\xaa?'
p3224
tp3225
Rp3226
aF0.2170770996188969
ag6
(g21
S'\x00\x00\x00\x00'
p3227
tp3228
Rp3229
ag6
(g21
S'v\xe2\xf7?'
p3230
tp3231
Rp3232
aaa(lp3233
(g2453
I52
tp3234
a(lp3235
g6
(g10
S'.\x86\x13*Or\xfb?'
p3236
tp3237
Rp3238
ag6
(g10
S'8\x02\x93\xb2\xf3\xf3\x1b@'
p3239
tp3240
Rp3241
aF2.0113705108366124
ag6
(g21
S'\x00\x00\x00\x00'
p3242
tp3243
Rp3244
ag6
(g21
S'\xadI\x18A'
p3245
tp3246
Rp3247
aaa(lp3248
(g2453
I53
tp3249
a(lp3250
g6
(g10
S'Z:\x9c\x00p\x87\xf9?'
p3251
tp3252
Rp3253
ag6
(g10
S'+P_\xe9<\x84\x1c@'
p3254
tp3255
Rp3256
aF2.140866271643016
ag6
(g21
S'\x00\x00\x00\x00'
p3257
tp3258
Rp3259
ag6
(g21
S' \xbaHA'
p3260
tp3261
Rp3262
aaa(lp3263
(g2453
I54
tp3264
a(lp3265
g6
(g10
S'\xfb\x87<]\xb6\xc4\xd4?'
p3266
tp3267
Rp3268
ag6
(g10
S'jf\x9b\x85\x12\x10\xdd?'
p3269
tp3270
Rp3271
aF0.5905942723469226
ag6
(g21
S'\x00\x00\x00\x00'
p3272
tp3273
Rp3274
ag6
(g21
S'\xab\x8c#@'
p3275
tp3276
Rp3277
aaa(lp3278
(g2453
I55
tp3279
a(lp3280
g6
(g10
S'\x1e\xe1\x88#\xc4k\xf5?'
p3281
tp3282
Rp3283
ag6
(g10
S'\x89\xf7\xee\xbdiU\x16@'
p3284
tp3285
Rp3286
aF1.947048716298167
ag6
(g21
S'\x00\x00\x00\x00'
p3287
tp3288
Rp3289
ag6
(g21
S'[\xb6-A'
p3290
tp3291
Rp3292
aaa(lp3293
(g2453
I56
tp3294
a(lp3295
g6
(g10
S'\x99j\xe1\xc72\xdb\xab?'
p3296
tp3297
Rp3298
ag6
(g10
S'\x08\x13\x12:\xff\xd5\xb6?'
p3299
tp3300
Rp3301
aF0.29367114765399893
ag6
(g21
S'\x00\x00\x00\x00'
p3302
tp3303
Rp3304
ag6
(g21
S'7\x86\xc0@'
p3305
tp3306
Rp3307
aaa(lp3308
(g2453
I57
tp3309
a(lp3310
g6
(g10
S'\xfeh\x05\xb5\x17\x80\xee?'
p3311
tp3312
Rp3313
ag6
(g10
S'\xff\x87\x87\x9a \xf5\x0b@'
p3314
tp3315
Rp3316
aF1.6081735845089526
ag6
(g21
S'\x00\x00\x00\x00'
p3317
tp3318
Rp3319
ag6
(g21
S'\xa7U\x0cA'
p3320
tp3321
Rp3322
aaa(lp3323
(g2453
I58
tp3324
a(lp3325
g6
(g10
S'\x1e\x05>\xf1\xe1\xe8\xe6?'
p3326
tp3327
Rp3328
ag6
(g10
S'P\nz7\xeay\r@'
p3329
tp3330
Rp3331
aF1.7810041524621203
ag6
(g21
S'\x00\x00\x00\x00'
p3332
tp3333
Rp3334
ag6
(g21
S'ldTA'
p3335
tp3336
Rp3337
aaa(lp3338
(g2453
I59
tp3339
a(lp3340
g6
(g10
S'\xda\x92_;\xd1u\xe8?'
p3341
tp3342
Rp3343
ag6
(g10
S'o\xd7\xbd\xed\x9b\xba\xfe?'
p3344
tp3345
Rp3346
aF1.155975356758516
ag6
(g21
S'\x00\x00\x00\x00'
p3347
tp3348
Rp3349
ag6
(g21
S'\xa3H\xfe@'
p3350
tp3351
Rp3352
aaa(lp3353
(g2453
I60
tp3354
a(lp3355
g6
(g10
S'DWe\xcc_h\xe7?'
p3356
tp3357
Rp3358
ag6
(g10
S'D\xb8\xecj\xdb\x13\x07@'
p3359
tp3360
Rp3361
aF1.5328459731106718
ag6
(g21
S'\x00\x00\x00\x00'
p3362
tp3363
Rp3364
ag6
(g21
S'\x0c\xe7 A'
p3365
tp3366
Rp3367
aaa(lp3368
(g2453
I61
tp3369
a(lp3370
g6
(g10
S'\xa2\xc1\xf7\x08\t\x9b\xc1?'
p3371
tp3372
Rp3373
ag6
(g10
S'\xc4\x02\xd8\x93\x13\xa3\xc5?'
p3374
tp3375
Rp3376
aF0.3874543865779081
ag6
(g21
S'\x00\x00\x00\x00'
p3377
tp3378
Rp3379
ag6
(g21
S'\x1eeA@'
p3380
tp3381
Rp3382
aaa(lp3383
(g2453
I62
tp3384
a(lp3385
g6
(g10
S'EK~\x8da\xe8\xf5?'
p3386
tp3387
Rp3388
ag6
(g10
S'o\x99y\xa8\xda\x14\x16@'
p3389
tp3390
Rp3391
aF1.909336155021852
ag6
(g21
S'\x00\x00\x00\x00'
p3392
tp3393
Rp3394
ag6
(g21
S'\x96\xc8;A'
p3395
tp3396
Rp3397
aaa(lp3398
(g2453
I63
tp3399
a(lp3400
g6
(g10
S'&c\xcePA\x0e\xee?'
p3401
tp3402
Rp3403
ag6
(g10
S'\xbc\x98\xde\xe7&\xac\r@'
p3404
tp3405
Rp3406
aF1.681334755875941
ag6
(g21
S'\x00\x00\x00\x00'
p3407
tp3408
Rp3409
ag6
(g21
S'\x85Z\rA'
p3410
tp3411
Rp3412
aaa(lp3413
(g2453
I64
tp3414
a(lp3415
g6
(g10
S'g\x0c\x17\x95\x19\xe6\xfd?'
p3416
tp3417
Rp3418
ag6
(g10
S'v\x1a\x95\xa9\xcf\xf9#@'
p3419
tp3420
Rp3421
aF2.5487172658458546
ag6
(g21
S'\x00\x00\x00\x00'
p3422
tp3423
Rp3424
ag6
(g21
S'\xc8\xf3dA'
p3425
tp3426
Rp3427
aaa(lp3428
(g2453
I65
tp3429
a(lp3430
g6
(g10
S'\x98l1pN\xe6\xa2?'
p3431
tp3432
Rp3433
ag6
(g10
S'\x86\xcc6\xe3\x0b\xf5\x92?'
p3434
tp3435
Rp3436
aF0.13095918325763772
ag6
(g21
S'\x00\x00\x00\x00'
p3437
tp3438
Rp3439
ag6
(g21
S'/v\x94?'
p3440
tp3441
Rp3442
aaa(lp3443
(g2453
I66
tp3444
a(lp3445
g6
(g10
S'V\xbeZ\xb7\x0bg\xdb?'
p3446
tp3447
Rp3448
ag6
(g10
S'cr\xad\xec\xae\xa1\xf5?'
p3449
tp3450
Rp3451
aF1.0810405616064733
ag6
(g21
S'\x00\x00\x00\x00'
p3452
tp3453
Rp3454
ag6
(g21
S'Ac\xd9@'
p3455
tp3456
Rp3457
aaa(lp3458
(g2453
I67
tp3459
a(lp3460
g6
(g10
S'\xd4\x84\xc6\xb4TZ\xe4?'
p3461
tp3462
Rp3463
ag6
(g10
S'\x16P\xbcjV\xfd\xf7?'
p3464
tp3465
Rp3466
aF1.04633646798875
ag6
(g21
S'\x00\x00\x00\x00'
p3467
tp3468
Rp3469
ag6
(g21
S'|\xf5\xea@'
p3470
tp3471
Rp3472
aaa(lp3473
(g2453
I68
tp3474
a(lp3475
g6
(g10
S'OQ_h\x9ek\xda?'
p3476
tp3477
Rp3478
ag6
(g10
S'\xe35\x10\x12T\xb2\xeb?'
p3479
tp3480
Rp3481
aF0.833726253429611
ag6
(g21
S'\x00\x00\x00\x00'
p3482
tp3483
Rp3484
ag6
(g21
S'\x18K\xe8@'
p3485
tp3486
Rp3487
aaa(lp3488
(g2453
I69
tp3489
a(lp3490
g6
(g10
S'\x00\x00\x00\x00\x00\x00\x00\x00'
p3491
tp3492
Rp3493
ag6
(g10
S'\x00\x00\x00\x00\x00\x00\x00\x00'
p3494
tp3495
Rp3496
aF0.0
ag6
(g21
S'\x00\x00\x00\x00'
p3497
tp3498
Rp3499
ag3499
aaa(lp3500
(g2453
I70
tp3501
a(lp3502
g6
(g10
S'H$\xb2\x95a\x14\xde?'
p3503
tp3504
Rp3505
ag6
(g10
S'\xa0{\xdd|\x1b\xce\xec?'
p3506
tp3507
Rp3508
aF0.8241755034746091
ag6
(g21
S'\x00\x00\x00\x00'
p3509
tp3510
Rp3511
ag6
(g21
S'\xaa\x8f\xb1@'
p3512
tp3513
Rp3514
aaa(lp3515
(g2453
I71
tp3516
a(lp3517
g6
(g10
S'\x03>\x1c\xcd\xd3\x08\xf1?'
p3518
tp3519
Rp3520
ag6
(g10
S'F\xd6\xc8(uk\x08@'
p3521
tp3522
Rp3523
aF1.38527219160744
ag6
(g21
S'\x00\x00\x00\x00'
p3524
tp3525
Rp3526
ag6
(g21
S'\xa2n\xcb@'
p3527
tp3528
Rp3529
aaa(lp3530
(g2453
I72
tp3531
a(lp3532
g6
(g10
S'\xf6\xd1Jf?\xc5\xdd?'
p3533
tp3534
Rp3535
ag6
(g10
S'W\x12\xd41\xa4B\xf1?'
p3536
tp3537
Rp3538
aF0.9286507869129625
ag6
(g21
S'\x00\x00\x00\x00'
p3539
tp3540
Rp3541
ag6
(g21
S'\xaf"\xb0@'
p3542
tp3543
Rp3544
aaa(lp3545
(g2453
I73
tp3546
a(lp3547
g6
(g10
S'\xfd0\xe1X1\xd5\xe7?'
p3548
tp3549
Rp3550
ag6
(g10
S'\x04\xe3\xed%\x06\xd0\x03@'
p3551
tp3552
Rp3553
aF1.3863207277571978
ag6
(g21
S'\x00\x00\x00\x00'
p3554
tp3555
Rp3556
ag6
(g21
S'\x10S\xf5@'
p3557
tp3558
Rp3559
aaa(lp3560
(g2453
I74
tp3561
a(lp3562
g6
(g10
S'\x10\xbel\xe3u\x98\xda?'
p3563
tp3564
Rp3565
ag6
(g10
S'Q:\xc6\xf8\x00\x15\xeb?'
p3566
tp3567
Rp3568
aF0.820748199800615
ag6
(g21
S'\x00\x00\x00\x00'
p3569
tp3570
Rp3571
ag6
(g21
S'\xe0\xba\x8d@'
p3572
tp3573
Rp3574
aaa(lp3575
(g2453
I75
tp3576
a(lp3577
g6
(g10
S'\t\x05\xb9\x8d\x1dF\xec?'
p3578
tp3579
Rp3580
ag6
(g10
S'\xbd?\x88\xe3 \xdf\x08@'
p3581
tp3582
Rp3583
aF1.5258679227573873
ag6
(g21
S'\x00\x00\x00\x00'
p3584
tp3585
Rp3586
ag6
(g21
S'/\x11%A'
p3587
tp3588
Rp3589
aaa(lp3590
(g2453
I76
tp3591
a(lp3592
g6
(g10
S'\x98R\xd1\x8d\x8b\x86\xbd?'
p3593
tp3594
Rp3595
ag6
(g10
S'\xbf\xe9z\xc6\xb8\xad\xb3?'
p3596
tp3597
Rp3598
aF0.252126051253274
ag6
(g21
S'\x00\x00\x00\x00'
p3599
tp3600
Rp3601
ag6
(g21
S'\t\xeb\x18@'
p3602
tp3603
Rp3604
aaa(lp3605
(g2453
I77
tp3606
a(lp3607
g6
(g10
S'\xfa\xc3d\x99\xaa\t\xea?'
p3608
tp3609
Rp3610
ag6
(g10
S'\xaf@\x11\x94\x99\xb4\x02@'
p3611
tp3612
Rp3613
aF1.2946460679650083
ag6
(g21
S'\x00\x00\x00\x00'
p3614
tp3615
Rp3616
ag6
(g21
S'C\xc6\xc9@'
p3617
tp3618
Rp3619
aaa(lp3620
(g2453
I78
tp3621
a(lp3622
g6
(g10
S'\xc7\xdf\xa3_\x82\x1a\xf9?'
p3623
tp3624
Rp3625
ag6
(g10
S' \t\x06\xe8\x93\x13 @'
p3626
tp3627
Rp3628
aF2.361475112045524
ag6
(g21
S'\x00\x00\x00\x00'
p3629
tp3630
Rp3631
ag6
(g21
S'5HTA'
p3632
tp3633
Rp3634
aaa(lp3635
(g2453
I79
tp3636
a(lp3637
g6
(g10
S'\xe5\xf0\xac\x81\x10\x90\xdb?'
p3638
tp3639
Rp3640
ag6
(g10
S'\x13B\xe9O\xa5+\xf2?'
p3641
tp3642
Rp3643
aF0.9747721663837966
ag6
(g21
S'\x00\x00\x00\x00'
p3644
tp3645
Rp3646
ag6
(g21
S'A\x83\xb4@'
p3647
tp3648
Rp3649
aaa(lp3650
(g2453
I80
tp3651
a(lp3652
g6
(g10
S'uW\x80\xdcYe\xe7?'
p3653
tp3654
Rp3655
ag6
(g10
S'\xd5X*4\xd0\xe3\xfd?'
p3656
tp3657
Rp3658
aF1.154806985406654
ag6
(g21
S'\x00\x00\x00\x00'
p3659
tp3660
Rp3661
ag6
(g21
S'\xb7\xb0\xe0@'
p3662
tp3663
Rp3664
aaa(lp3665
(g2453
I81
tp3666
a(lp3667
g6
(g10
S'\x1b\xa7\xf7\x9ce[\xf0?'
p3668
tp3669
Rp3670
ag6
(g10
S'{>\x8ah\xc0\xa9\x06@'
p3671
tp3672
Rp3673
aF1.3370718807460042
ag6
(g21
S'\x00\x00\x00\x00'
p3674
tp3675
Rp3676
ag6
(g21
S'\x87P\x00A'
p3677
tp3678
Rp3679
aaa(lp3680
(g2453
I82
tp3681
a(lp3682
g6
(g10
S')+\x8c\x8e\xcbs\xee?'
p3683
tp3684
Rp3685
ag6
(g10
S'\xf46v\x12L\x82\x0f@'
p3686
tp3687
Rp3688
aF1.7415545357469948
ag6
(g21
S'\x00\x00\x00\x00'
p3689
tp3690
Rp3691
ag6
(g21
S';=\x1aA'
p3692
tp3693
Rp3694
aaa(lp3695
(g2453
I83
tp3696
a(lp3697
g6
(g10
S'\xc1B\x8d\xbe\x1fm\xe7?'
p3698
tp3699
Rp3700
ag6
(g10
S'\x87\xd6\xa9$\xe0{\r@'
p3701
tp3702
Rp3703
aF1.77469953947468
ag6
(g21
S'\x00\x00\x00\x00'
p3704
tp3705
Rp3706
ag6
(g21
S'A\xd7\x13A'
p3707
tp3708
Rp3709
aaa(lp3710
(Vdense_3
p3711
I0
tp3712
a(lp3713
g6
(g10
S'\xfb<\xbf\xfb\xe9D\xb9?'
p3714
tp3715
Rp3716
ag6
(g10
S'\x9c:\xfa\xb2d-\xb9?'
p3717
tp3718
Rp3719
aF0.297667043888292
ag6
(g21
S'\x1d\xa2;#'
p3720
tp3721
Rp3722
ag6
(g21
S'\x00\x00\x80?'
p3723
tp3724
Rp3725
aaa(lp3726
(g3711
I1
tp3727
a(lp3728
g6
(g10
S'\x80</[\xe6\xc8\xbc?'
p3729
tp3730
Rp3731
ag6
(g10
S'\x8c\x94J\r|\xa6\xbc?'
p3732
tp3733
Rp3734
aF0.3150753714402915
ag6
(g21
S'\xe2\nE&'
p3735
tp3736
Rp3737
ag6
(g21
S'\xfe\xff\x7f?'
p3738
tp3739
Rp3740
aaa(lp3741
(g3711
I2
tp3742
a(lp3743
g6
(g10
S'\x0c\xaas>\xbe\x85\xb9?'
p3744
tp3745
Rp3746
ag6
(g10
S'\x81>\xad\xfc\xe3\xe8\xb8?'
p3747
tp3748
Rp3749
aF0.29557424561371876
ag6
(g21
S'\xd9\x94\x88&'
p3750
tp3751
Rp3752
ag6
(g21
S'\x00\x00\x80?'
p3753
tp3754
Rp3755
aaa(lp3756
(g3711
I3
tp3757
a(lp3758
g6
(g10
S"\xff\xc1*\xa4\xc9'\xba?"
p3759
tp3760
Rp3761
ag6
(g10
S'yA\x1f\x95T\xef\xb9?'
p3762
tp3763
Rp3764
aF0.3014457041924292
ag6
(g21
S'\xacsD&'
p3765
tp3766
Rp3767
ag6
(g21
S'\x00\x00\x80?'
p3768
tp3769
Rp3770
aaa(lp3771
(g3711
I4
tp3772
a(lp3773
g6
(g10
S'\x9eT_\x00S\xff\xb8?'
p3774
tp3775
Rp3776
ag6
(g10
S'f\xc2sR\x04\xc6\xb8?'
p3777
tp3778
Rp3779
aF0.2953587116509229
ag6
(g21
S'\x7f\x1cH#'
p3780
tp3781
Rp3782
ag6
(g21
S'\x00\x00\x80?'
p3783
tp3784
Rp3785
aaa(lp3786
(g3711
I5
tp3787
a(lp3788
g6
(g10
S'\x1f\xe9\xf9\xd9\xd6$\xb7?'
p3789
tp3790
Rp3791
ag6
(g10
S'\xbf9yb\x82\xae\xb6?'
p3792
tp3793
Rp3794
aF0.2835966837544214
ag6
(g21
S'\x7f\x8f\xf3%'
p3795
tp3796
Rp3797
ag6
(g21
S'\x00\x00\x80?'
p3798
tp3799
Rp3800
aaa(lp3801
(g3711
I6
tp3802
a(lp3803
g6
(g10
S'\xd4o\xa2!r"\xb9?'
p3804
tp3805
Rp3806
ag6
(g10
S'\x96\x97$\xbc`\xc0\xb8?'
p3807
tp3808
Rp3809
aF0.2950352137795408
ag6
(g21
S'\xc3~g%'
p3810
tp3811
Rp3812
ag6
(g21
S'\x00\x00\x80?'
p3813
tp3814
Rp3815
aaa(lp3816
(g3711
I7
tp3817
a(lp3818
g6
(g10
S'\x96\xaa\xaeC\x00\xcb\xba?'
p3819
tp3820
Rp3821
ag6
(g10
S'\xf2XXf\xf0\x8c\xba?'
p3822
tp3823
Rp3824
aF0.3045641695267305
ag6
(g21
S'\x1bc\xc4&'
p3825
tp3826
Rp3827
ag6
(g21
S'\x00\x00\x80?'
p3828
tp3829
Rp3830
aaa(lp3831
(g3711
I8
tp3832
a(lp3833
g6
(g10
S'\x9e\xd0\x90K\xde\xe4\xb8?'
p3834
tp3835
Rp3836
ag6
(g10
S'\x95=\x14\x837\xa7\xb8?'
p3837
tp3838
Rp3839
aF0.29469555584935747
ag6
(g21
S'\xd4\x06\xc9&'
p3840
tp3841
Rp3842
ag6
(g21
S'\x00\x00\x80?'
p3843
tp3844
Rp3845
aaa(lp3846
(g3711
I9
tp3847
a(lp3848
g6
(g10
S'\xbf^\xe8R-N\xb9?'
p3849
tp3850
Rp3851
ag6
(g10
S'q\xf5\xba\x8c\xb1\x01\xb9?'
p3852
tp3853
Rp3854
aF0.2964977903461327
ag6
(g21
S'\x1do\x83$'
p3855
tp3856
Rp3857
ag6
(g21
S'\x00\x00\x80?'
p3858
tp3859
Rp3860
aaatp3861
Rp3862
.